
/mnt/data1/home/zhangql/xs-env-nanhuV2/nexus-am/apps/dhrystone/build/dhrystone-riscv64-xs-flash.elf:     file format elf64-littleriscv


Disassembly of section .text:

0000000080000000 <_start>:
    80000000:	00000413          	li	s0,0
    80000004:	7f008117          	auipc	sp,0x7f008
    80000008:	ffc10113          	addi	sp,sp,-4 # ff008000 <_end>
    8000000c:	6509                	lui	a0,0x2
    8000000e:	30052073          	csrs	mstatus,a0
    80000012:	00305073          	csrwi	fcsr,0
    80000016:	5d9000ef          	jal	ra,80000dee <_trm_init>

000000008000001a <Proc_2>:
    8000001a:	7f003717          	auipc	a4,0x7f003
    8000001e:	c0774703          	lbu	a4,-1017(a4) # ff002c21 <Ch_1_Glob>
    80000022:	04100793          	li	a5,65
    80000026:	00f70363          	beq	a4,a5,8000002c <Proc_2+0x12>
    8000002a:	8082                	ret
    8000002c:	411c                	lw	a5,0(a0)
    8000002e:	7f003717          	auipc	a4,0x7f003
    80000032:	bfa72703          	lw	a4,-1030(a4) # ff002c28 <Int_Glob>
    80000036:	27a5                	addiw	a5,a5,9
    80000038:	9f99                	subw	a5,a5,a4
    8000003a:	c11c                	sw	a5,0(a0)
    8000003c:	8082                	ret

000000008000003e <Proc_3>:
    8000003e:	7f003717          	auipc	a4,0x7f003
    80000042:	bfa70713          	addi	a4,a4,-1030 # ff002c38 <Ptr_Glob>
    80000046:	631c                	ld	a5,0(a4)
    80000048:	c781                	beqz	a5,80000050 <Proc_3+0x12>
    8000004a:	639c                	ld	a5,0(a5)
    8000004c:	e11c                	sd	a5,0(a0)
    8000004e:	631c                	ld	a5,0(a4)
    80000050:	7f003717          	auipc	a4,0x7f003
    80000054:	bd872703          	lw	a4,-1064(a4) # ff002c28 <Int_Glob>
    80000058:	2731                	addiw	a4,a4,12
    8000005a:	cb98                	sw	a4,16(a5)
    8000005c:	8082                	ret

000000008000005e <Proc_4>:
    8000005e:	7f003717          	auipc	a4,0x7f003
    80000062:	bc670713          	addi	a4,a4,-1082 # ff002c24 <Bool_Glob>
    80000066:	4314                	lw	a3,0(a4)
    80000068:	7f003797          	auipc	a5,0x7f003
    8000006c:	bb97c783          	lbu	a5,-1095(a5) # ff002c21 <Ch_1_Glob>
    80000070:	fbf78793          	addi	a5,a5,-65
    80000074:	0017b793          	seqz	a5,a5
    80000078:	8fd5                	or	a5,a5,a3
    8000007a:	c31c                	sw	a5,0(a4)
    8000007c:	04200793          	li	a5,66
    80000080:	7f003717          	auipc	a4,0x7f003
    80000084:	baf70023          	sb	a5,-1120(a4) # ff002c20 <Ch_2_Glob>
    80000088:	8082                	ret

000000008000008a <Proc_5>:
    8000008a:	04100793          	li	a5,65
    8000008e:	7f003717          	auipc	a4,0x7f003
    80000092:	b8f709a3          	sb	a5,-1133(a4) # ff002c21 <Ch_1_Glob>
    80000096:	7f003797          	auipc	a5,0x7f003
    8000009a:	b807a723          	sw	zero,-1138(a5) # ff002c24 <Bool_Glob>
    8000009e:	8082                	ret

00000000800000a0 <Proc_6>:
    800000a0:	4709                	li	a4,2
    800000a2:	02e50a63          	beq	a0,a4,800000d6 <Proc_6+0x36>
    800000a6:	478d                	li	a5,3
    800000a8:	c19c                	sw	a5,0(a1)
    800000aa:	4785                	li	a5,1
    800000ac:	00f50963          	beq	a0,a5,800000be <Proc_6+0x1e>
    800000b0:	00a7ff63          	bgeu	a5,a0,800000ce <Proc_6+0x2e>
    800000b4:	4791                	li	a5,4
    800000b6:	00f51f63          	bne	a0,a5,800000d4 <Proc_6+0x34>
    800000ba:	c198                	sw	a4,0(a1)
    800000bc:	8082                	ret
    800000be:	7f003717          	auipc	a4,0x7f003
    800000c2:	b6a72703          	lw	a4,-1174(a4) # ff002c28 <Int_Glob>
    800000c6:	06400793          	li	a5,100
    800000ca:	fee7d9e3          	bge	a5,a4,800000bc <Proc_6+0x1c>
    800000ce:	0005a023          	sw	zero,0(a1)
    800000d2:	8082                	ret
    800000d4:	8082                	ret
    800000d6:	4785                	li	a5,1
    800000d8:	c19c                	sw	a5,0(a1)
    800000da:	8082                	ret

00000000800000dc <Proc_1>:
    800000dc:	1101                	addi	sp,sp,-32
    800000de:	e426                	sd	s1,8(sp)
    800000e0:	7f003497          	auipc	s1,0x7f003
    800000e4:	b5848493          	addi	s1,s1,-1192 # ff002c38 <Ptr_Glob>
    800000e8:	609c                	ld	a5,0(s1)
    800000ea:	e822                	sd	s0,16(sp)
    800000ec:	6100                	ld	s0,0(a0)
    800000ee:	6394                	ld	a3,0(a5)
    800000f0:	7b98                	ld	a4,48(a5)
    800000f2:	0087b303          	ld	t1,8(a5)
    800000f6:	0107b883          	ld	a7,16(a5)
    800000fa:	0187b803          	ld	a6,24(a5)
    800000fe:	738c                	ld	a1,32(a5)
    80000100:	7790                	ld	a2,40(a5)
    80000102:	ec06                	sd	ra,24(sp)
    80000104:	e014                	sd	a3,0(s0)
    80000106:	6114                	ld	a3,0(a0)
    80000108:	00643423          	sd	t1,8(s0)
    8000010c:	01143823          	sd	a7,16(s0)
    80000110:	f818                	sd	a4,48(s0)
    80000112:	01043c23          	sd	a6,24(s0)
    80000116:	4715                	li	a4,5
    80000118:	f00c                	sd	a1,32(s0)
    8000011a:	f410                	sd	a2,40(s0)
    8000011c:	c918                	sw	a4,16(a0)
    8000011e:	e014                	sd	a3,0(s0)
    80000120:	6394                	ld	a3,0(a5)
    80000122:	7f003797          	auipc	a5,0x7f003
    80000126:	b067a783          	lw	a5,-1274(a5) # ff002c28 <Int_Glob>
    8000012a:	c818                	sw	a4,16(s0)
    8000012c:	e014                	sd	a3,0(s0)
    8000012e:	6098                	ld	a4,0(s1)
    80000130:	27b1                	addiw	a5,a5,12
    80000132:	cb1c                	sw	a5,16(a4)
    80000134:	441c                	lw	a5,8(s0)
    80000136:	cb8d                	beqz	a5,80000168 <Proc_1+0x8c>
    80000138:	611c                	ld	a5,0(a0)
    8000013a:	60e2                	ld	ra,24(sp)
    8000013c:	6442                	ld	s0,16(sp)
    8000013e:	0007b883          	ld	a7,0(a5)
    80000142:	0087b803          	ld	a6,8(a5)
    80000146:	6b8c                	ld	a1,16(a5)
    80000148:	6f90                	ld	a2,24(a5)
    8000014a:	7394                	ld	a3,32(a5)
    8000014c:	7798                	ld	a4,40(a5)
    8000014e:	7b9c                	ld	a5,48(a5)
    80000150:	01153023          	sd	a7,0(a0) # 2000 <_start-0x7fffe000>
    80000154:	01053423          	sd	a6,8(a0)
    80000158:	e90c                	sd	a1,16(a0)
    8000015a:	ed10                	sd	a2,24(a0)
    8000015c:	f114                	sd	a3,32(a0)
    8000015e:	f518                	sd	a4,40(a0)
    80000160:	f91c                	sd	a5,48(a0)
    80000162:	64a2                	ld	s1,8(sp)
    80000164:	6105                	addi	sp,sp,32
    80000166:	8082                	ret
    80000168:	4548                	lw	a0,12(a0)
    8000016a:	4799                	li	a5,6
    8000016c:	c81c                	sw	a5,16(s0)
    8000016e:	00c40593          	addi	a1,s0,12
    80000172:	f2fff0ef          	jal	ra,800000a0 <Proc_6>
    80000176:	6098                	ld	a4,0(s1)
    80000178:	481c                	lw	a5,16(s0)
    8000017a:	60e2                	ld	ra,24(sp)
    8000017c:	6318                	ld	a4,0(a4)
    8000017e:	27b1                	addiw	a5,a5,12
    80000180:	c81c                	sw	a5,16(s0)
    80000182:	e018                	sd	a4,0(s0)
    80000184:	6442                	ld	s0,16(sp)
    80000186:	64a2                	ld	s1,8(sp)
    80000188:	6105                	addi	sp,sp,32
    8000018a:	8082                	ret

000000008000018c <Proc_7>:
    8000018c:	2509                	addiw	a0,a0,2
    8000018e:	9d2d                	addw	a0,a0,a1
    80000190:	c208                	sw	a0,0(a2)
    80000192:	8082                	ret

0000000080000194 <Proc_8>:
    80000194:	0056079b          	addiw	a5,a2,5
    80000198:	0c800713          	li	a4,200
    8000019c:	02e78733          	mul	a4,a5,a4
    800001a0:	060a                	slli	a2,a2,0x2
    800001a2:	20a7c533          	sh2add	a0,a5,a0
    800001a6:	883e                	mv	a6,a5
    800001a8:	c114                	sw	a3,0(a0)
    800001aa:	c154                	sw	a3,4(a0)
    800001ac:	07052c23          	sw	a6,120(a0)
    800001b0:	00c707b3          	add	a5,a4,a2
    800001b4:	97ae                	add	a5,a5,a1
    800001b6:	4b94                	lw	a3,16(a5)
    800001b8:	0107aa23          	sw	a6,20(a5)
    800001bc:	0107ac23          	sw	a6,24(a5)
    800001c0:	2685                	addiw	a3,a3,1
    800001c2:	cb94                	sw	a3,16(a5)
    800001c4:	4114                	lw	a3,0(a0)
    800001c6:	95ba                	add	a1,a1,a4
    800001c8:	6785                	lui	a5,0x1
    800001ca:	95b2                	add	a1,a1,a2
    800001cc:	95be                	add	a1,a1,a5
    800001ce:	4795                	li	a5,5
    800001d0:	fad5aa23          	sw	a3,-76(a1)
    800001d4:	7f003717          	auipc	a4,0x7f003
    800001d8:	a4f72a23          	sw	a5,-1452(a4) # ff002c28 <Int_Glob>
    800001dc:	8082                	ret

00000000800001de <Func_1>:
    800001de:	0ff57513          	zext.b	a0,a0
    800001e2:	0ff5f593          	zext.b	a1,a1
    800001e6:	00b50463          	beq	a0,a1,800001ee <Func_1+0x10>
    800001ea:	4501                	li	a0,0
    800001ec:	8082                	ret
    800001ee:	7f003797          	auipc	a5,0x7f003
    800001f2:	a2a789a3          	sb	a0,-1485(a5) # ff002c21 <Ch_1_Glob>
    800001f6:	4505                	li	a0,1
    800001f8:	8082                	ret

00000000800001fa <Func_2>:
    800001fa:	1141                	addi	sp,sp,-16
    800001fc:	e406                	sd	ra,8(sp)
    800001fe:	7f003817          	auipc	a6,0x7f003
    80000202:	a2380813          	addi	a6,a6,-1501 # ff002c21 <Ch_1_Glob>
    80000206:	00254783          	lbu	a5,2(a0)
    8000020a:	0035c703          	lbu	a4,3(a1)
    8000020e:	00084603          	lbu	a2,0(a6)
    80000212:	4681                	li	a3,0
    80000214:	02e78463          	beq	a5,a4,8000023c <Func_2+0x42>
    80000218:	c299                	beqz	a3,8000021e <Func_2+0x24>
    8000021a:	00c80023          	sb	a2,0(a6)
    8000021e:	4e1010ef          	jal	ra,80001efe <strcmp>
    80000222:	4781                	li	a5,0
    80000224:	00a05863          	blez	a0,80000234 <Func_2+0x3a>
    80000228:	47a9                	li	a5,10
    8000022a:	7f003717          	auipc	a4,0x7f003
    8000022e:	9ef72f23          	sw	a5,-1538(a4) # ff002c28 <Int_Glob>
    80000232:	4785                	li	a5,1
    80000234:	60a2                	ld	ra,8(sp)
    80000236:	853e                	mv	a0,a5
    80000238:	0141                	addi	sp,sp,16
    8000023a:	8082                	ret
    8000023c:	4685                	li	a3,1
    8000023e:	863e                	mv	a2,a5
    80000240:	bfd1                	j	80000214 <Func_2+0x1a>

0000000080000242 <Func_3>:
    80000242:	1579                	addi	a0,a0,-2
    80000244:	00153513          	seqz	a0,a0
    80000248:	8082                	ret

000000008000024a <check>:
    8000024a:	e509                	bnez	a0,80000254 <check+0xa>
    8000024c:	7f000797          	auipc	a5,0x7f000
    80000250:	da07aa23          	sw	zero,-588(a5) # ff000000 <pass>
    80000254:	8082                	ret

Disassembly of section .text.startup:

0000000080000256 <main>:
    80000256:	7155                	addi	sp,sp,-208
    80000258:	e586                	sd	ra,200(sp)
    8000025a:	e1a2                	sd	s0,192(sp)
    8000025c:	fd26                	sd	s1,184(sp)
    8000025e:	f94a                	sd	s2,176(sp)
    80000260:	f54e                	sd	s3,168(sp)
    80000262:	f152                	sd	s4,160(sp)
    80000264:	ed56                	sd	s5,152(sp)
    80000266:	e95a                	sd	s6,144(sp)
    80000268:	e55e                	sd	s7,136(sp)
    8000026a:	e162                	sd	s8,128(sp)
    8000026c:	fce6                	sd	s9,120(sp)
    8000026e:	f8ea                	sd	s10,112(sp)
    80000270:	f4ee                	sd	s11,104(sp)
    80000272:	7da000ef          	jal	ra,80000a4c <_ioe_init>
    80000276:	7f000617          	auipc	a2,0x7f000
    8000027a:	d9260613          	addi	a2,a2,-622 # ff000008 <free_mem>
    8000027e:	6214                	ld	a3,0(a2)
    80000280:	0036f793          	andi	a5,a3,3
    80000284:	cb81                	beqz	a5,80000294 <main+0x3e>
    80000286:	00168793          	addi	a5,a3,1
    8000028a:	0037f713          	andi	a4,a5,3
    8000028e:	86be                	mv	a3,a5
    80000290:	0785                	addi	a5,a5,1
    80000292:	ff65                	bnez	a4,8000028a <main+0x34>
    80000294:	7f003797          	auipc	a5,0x7f003
    80000298:	99c78793          	addi	a5,a5,-1636 # ff002c30 <Next_Ptr_Glob>
    8000029c:	e394                	sd	a3,0(a5)
    8000029e:	0036f793          	andi	a5,a3,3
    800002a2:	03868513          	addi	a0,a3,56
    800002a6:	cb81                	beqz	a5,800002b6 <main+0x60>
    800002a8:	03968793          	addi	a5,a3,57
    800002ac:	0037f713          	andi	a4,a5,3
    800002b0:	853e                	mv	a0,a5
    800002b2:	0785                	addi	a5,a5,1
    800002b4:	ff65                	bnez	a4,800002ac <main+0x56>
    800002b6:	7f003b97          	auipc	s7,0x7f003
    800002ba:	982b8b93          	addi	s7,s7,-1662 # ff002c38 <Ptr_Glob>
    800002be:	2a101713          	bseti	a4,zero,0x21
    800002c2:	00abb023          	sd	a0,0(s7)
    800002c6:	e518                	sd	a4,8(a0)
    800002c8:	02800713          	li	a4,40
    800002cc:	e114                	sd	a3,0(a0)
    800002ce:	c918                	sw	a4,16(a0)
    800002d0:	03850793          	addi	a5,a0,56
    800002d4:	00002597          	auipc	a1,0x2
    800002d8:	c5c58593          	addi	a1,a1,-932 # 80001f30 <strcmp+0x32>
    800002dc:	0551                	addi	a0,a0,20
    800002de:	e21c                	sd	a5,0(a2)
    800002e0:	40d010ef          	jal	ra,80001eec <strcpy>
    800002e4:	00002597          	auipc	a1,0x2
    800002e8:	c6c58593          	addi	a1,a1,-916 # 80001f50 <strcmp+0x52>
    800002ec:	1008                	addi	a0,sp,32
    800002ee:	3ff010ef          	jal	ra,80001eec <strcpy>
    800002f2:	47a9                	li	a5,10
    800002f4:	7f000917          	auipc	s2,0x7f000
    800002f8:	1e490913          	addi	s2,s2,484 # ff0004d8 <Arr_2_Glob>
    800002fc:	64f92e23          	sw	a5,1628(s2)
    80000300:	00002597          	auipc	a1,0x2
    80000304:	c7058593          	addi	a1,a1,-912 # 80001f70 <strcmp+0x72>
    80000308:	00002517          	auipc	a0,0x2
    8000030c:	c7850513          	addi	a0,a0,-904 # 80001f80 <strcmp+0x82>
    80000310:	3ab010ef          	jal	ra,80001eba <printf_>
    80000314:	45a9                	li	a1,10
    80000316:	00002517          	auipc	a0,0x2
    8000031a:	c9250513          	addi	a0,a0,-878 # 80001fa8 <strcmp+0xaa>
    8000031e:	7f003797          	auipc	a5,0x7f003
    80000322:	8e07ad23          	sw	zero,-1798(a5) # ff002c18 <Done>
    80000326:	395010ef          	jal	ra,80001eba <printf_>
    8000032a:	379000ef          	jal	ra,80000ea2 <uptime>
    8000032e:	7f003717          	auipc	a4,0x7f003
    80000332:	8e270713          	addi	a4,a4,-1822 # ff002c10 <Begin_Time>
    80000336:	080507bb          	zext.w	a5,a0
    8000033a:	e31c                	sd	a5,0(a4)
    8000033c:	b02027f3          	csrr	a5,minstret
    80000340:	7f003717          	auipc	a4,0x7f003
    80000344:	8b070713          	addi	a4,a4,-1872 # ff002bf0 <instrcnt>
    80000348:	e31c                	sd	a5,0(a4)
    8000034a:	b0002773          	csrr	a4,mcycle
    8000034e:	479d                	li	a5,7
    80000350:	1782                	slli	a5,a5,0x20
    80000352:	079d                	addi	a5,a5,7
    80000354:	e43e                	sd	a5,8(sp)
    80000356:	2a301793          	bseti	a5,zero,0x23
    8000035a:	7f003697          	auipc	a3,0x7f003
    8000035e:	88e68693          	addi	a3,a3,-1906 # ff002be8 <cycle>
    80000362:	07a1                	addi	a5,a5,8
    80000364:	e298                	sd	a4,0(a3)
    80000366:	4d05                	li	s10,1
    80000368:	7f003417          	auipc	s0,0x7f003
    8000036c:	8b940413          	addi	s0,s0,-1863 # ff002c21 <Ch_1_Glob>
    80000370:	7f003a17          	auipc	s4,0x7f003
    80000374:	8b4a0a13          	addi	s4,s4,-1868 # ff002c24 <Bool_Glob>
    80000378:	7f003c97          	auipc	s9,0x7f003
    8000037c:	8a8c8c93          	addi	s9,s9,-1880 # ff002c20 <Ch_2_Glob>
    80000380:	7f000997          	auipc	s3,0x7f000
    80000384:	c9098993          	addi	s3,s3,-880 # ff000010 <Arr_1_Glob>
    80000388:	7f003497          	auipc	s1,0x7f003
    8000038c:	8a048493          	addi	s1,s1,-1888 # ff002c28 <Int_Glob>
    80000390:	04100a93          	li	s5,65
    80000394:	e83e                	sd	a5,16(sp)
    80000396:	00002b17          	auipc	s6,0x2
    8000039a:	c5ab0b13          	addi	s6,s6,-934 # 80001ff0 <strcmp+0xf2>
    8000039e:	4785                	li	a5,1
    800003a0:	00002597          	auipc	a1,0x2
    800003a4:	c3058593          	addi	a1,a1,-976 # 80001fd0 <strcmp+0xd2>
    800003a8:	00fa2023          	sw	a5,0(s4)
    800003ac:	0088                	addi	a0,sp,64
    800003ae:	04200793          	li	a5,66
    800003b2:	00fc8023          	sb	a5,0(s9)
    800003b6:	01540023          	sb	s5,0(s0)
    800003ba:	333010ef          	jal	ra,80001eec <strcpy>
    800003be:	008c                	addi	a1,sp,64
    800003c0:	1008                	addi	a0,sp,32
    800003c2:	e39ff0ef          	jal	ra,800001fa <Func_2>
    800003c6:	872a                	mv	a4,a0
    800003c8:	00173713          	seqz	a4,a4
    800003cc:	00ea2023          	sw	a4,0(s4)
    800003d0:	6722                	ld	a4,8(sp)
    800003d2:	65c92783          	lw	a5,1628(s2)
    800003d6:	000bb503          	ld	a0,0(s7)
    800003da:	02e9b023          	sd	a4,32(s3)
    800003de:	4721                	li	a4,8
    800003e0:	08e9ac23          	sw	a4,152(s3)
    800003e4:	6742                	ld	a4,16(sp)
    800003e6:	2785                	addiw	a5,a5,1
    800003e8:	64f92e23          	sw	a5,1628(s2)
    800003ec:	66e93023          	sd	a4,1632(s2)
    800003f0:	7f001797          	auipc	a5,0x7f001
    800003f4:	0e878793          	addi	a5,a5,232 # ff0014d8 <Arr_2_Glob+0x1000>
    800003f8:	471d                	li	a4,7
    800003fa:	60e7a023          	sw	a4,1536(a5)
    800003fe:	4795                	li	a5,5
    80000400:	c09c                	sw	a5,0(s1)
    80000402:	cdbff0ef          	jal	ra,800000dc <Proc_1>
    80000406:	000cc503          	lbu	a0,0(s9)
    8000040a:	04000713          	li	a4,64
    8000040e:	04100c13          	li	s8,65
    80000412:	4885                	li	a7,1
    80000414:	458d                	li	a1,3
    80000416:	04300d93          	li	s11,67
    8000041a:	47b5                	li	a5,13
    8000041c:	4305                	li	t1,1
    8000041e:	04a77c63          	bgeu	a4,a0,80000476 <main+0x220>
    80000422:	000cc703          	lbu	a4,0(s9)
    80000426:	001c079b          	addiw	a5,s8,1
    8000042a:	0ff7fc13          	zext.b	s8,a5
    8000042e:	03876763          	bltu	a4,s8,8000045c <main+0x206>
    80000432:	4701                	li	a4,0
    80000434:	61bc0663          	beq	s8,s11,80000a40 <main+0x7ea>
    80000438:	fee895e3          	bne	a7,a4,80000422 <main+0x1cc>
    8000043c:	85da                	mv	a1,s6
    8000043e:	0088                	addi	a0,sp,64
    80000440:	2ad010ef          	jal	ra,80001eec <strcpy>
    80000444:	000cc703          	lbu	a4,0(s9)
    80000448:	001c079b          	addiw	a5,s8,1
    8000044c:	01a4a023          	sw	s10,0(s1)
    80000450:	0ff7fc13          	zext.b	s8,a5
    80000454:	4881                	li	a7,0
    80000456:	85ea                	mv	a1,s10
    80000458:	fd877de3          	bgeu	a4,s8,80000432 <main+0x1dc>
    8000045c:	0015979b          	slliw	a5,a1,0x1
    80000460:	9fad                	addw	a5,a5,a1
    80000462:	471d                	li	a4,7
    80000464:	02e7c33b          	divw	t1,a5,a4
    80000468:	37e5                	addiw	a5,a5,-7
    8000046a:	0037969b          	slliw	a3,a5,0x3
    8000046e:	40f687bb          	subw	a5,a3,a5
    80000472:	406787bb          	subw	a5,a5,t1
    80000476:	00044703          	lbu	a4,0(s0)
    8000047a:	01571663          	bne	a4,s5,80000486 <main+0x230>
    8000047e:	4098                	lw	a4,0(s1)
    80000480:	2325                	addiw	t1,t1,9
    80000482:	40e3033b          	subw	t1,t1,a4
    80000486:	2d05                	addiw	s10,s10,1
    80000488:	472d                	li	a4,11
    8000048a:	f0ed1ae3          	bne	s10,a4,8000039e <main+0x148>
    8000048e:	e43e                	sd	a5,8(sp)
    80000490:	ec46                	sd	a7,24(sp)
    80000492:	e81a                	sd	t1,16(sp)
    80000494:	20f000ef          	jal	ra,80000ea2 <uptime>
    80000498:	7f002797          	auipc	a5,0x7f002
    8000049c:	77878793          	addi	a5,a5,1912 # ff002c10 <Begin_Time>
    800004a0:	6394                	ld	a3,0(a5)
    800004a2:	0805073b          	zext.w	a4,a0
    800004a6:	7f002797          	auipc	a5,0x7f002
    800004aa:	76e7b123          	sd	a4,1890(a5) # ff002c08 <End_Time>
    800004ae:	40d706b3          	sub	a3,a4,a3
    800004b2:	4705                	li	a4,1
    800004b4:	7f002797          	auipc	a5,0x7f002
    800004b8:	74d7b623          	sd	a3,1868(a5) # ff002c00 <User_Time>
    800004bc:	7f002797          	auipc	a5,0x7f002
    800004c0:	74e7ae23          	sw	a4,1884(a5) # ff002c18 <Done>
    800004c4:	b0002773          	csrr	a4,mcycle
    800004c8:	7f002797          	auipc	a5,0x7f002
    800004cc:	72078793          	addi	a5,a5,1824 # ff002be8 <cycle>
    800004d0:	6394                	ld	a3,0(a5)
    800004d2:	8f15                	sub	a4,a4,a3
    800004d4:	e398                	sd	a4,0(a5)
    800004d6:	b0202673          	csrr	a2,minstret
    800004da:	7f002697          	auipc	a3,0x7f002
    800004de:	71668693          	addi	a3,a3,1814 # ff002bf0 <instrcnt>
    800004e2:	6298                	ld	a4,0(a3)
    800004e4:	638c                	ld	a1,0(a5)
    800004e6:	00002517          	auipc	a0,0x2
    800004ea:	b2a50513          	addi	a0,a0,-1238 # 80002010 <strcmp+0x112>
    800004ee:	8e19                	sub	a2,a2,a4
    800004f0:	d035f753          	fcvt.s.lu	fa4,a1
    800004f4:	d03677d3          	fcvt.s.lu	fa5,a2
    800004f8:	e290                	sd	a2,0(a3)
    800004fa:	18e7f7d3          	fdiv.s	fa5,fa5,fa4
    800004fe:	420787d3          	fcvt.d.s	fa5,fa5
    80000502:	e20786d3          	fmv.x.d	a3,fa5
    80000506:	1b5010ef          	jal	ra,80001eba <printf_>
    8000050a:	408c                	lw	a1,0(s1)
    8000050c:	4715                	li	a4,5
    8000050e:	67a2                	ld	a5,8(sp)
    80000510:	6342                	ld	t1,16(sp)
    80000512:	68e2                	ld	a7,24(sp)
    80000514:	02e58663          	beq	a1,a4,80000540 <main+0x2ea>
    80000518:	00002517          	auipc	a0,0x2
    8000051c:	b1850513          	addi	a0,a0,-1256 # 80002030 <strcmp+0x132>
    80000520:	7f000797          	auipc	a5,0x7f000
    80000524:	ae07a023          	sw	zero,-1312(a5) # ff000000 <pass>
    80000528:	193010ef          	jal	ra,80001eba <printf_>
    8000052c:	4595                	li	a1,5
    8000052e:	00002517          	auipc	a0,0x2
    80000532:	b2250513          	addi	a0,a0,-1246 # 80002050 <strcmp+0x152>
    80000536:	185010ef          	jal	ra,80001eba <printf_>
    8000053a:	68e2                	ld	a7,24(sp)
    8000053c:	6342                	ld	t1,16(sp)
    8000053e:	67a2                	ld	a5,8(sp)
    80000540:	000a2583          	lw	a1,0(s4)
    80000544:	4705                	li	a4,1
    80000546:	02e58963          	beq	a1,a4,80000578 <main+0x322>
    8000054a:	00002517          	auipc	a0,0x2
    8000054e:	b2650513          	addi	a0,a0,-1242 # 80002070 <strcmp+0x172>
    80000552:	e43e                	sd	a5,8(sp)
    80000554:	ec46                	sd	a7,24(sp)
    80000556:	e81a                	sd	t1,16(sp)
    80000558:	7f000797          	auipc	a5,0x7f000
    8000055c:	aa07a423          	sw	zero,-1368(a5) # ff000000 <pass>
    80000560:	15b010ef          	jal	ra,80001eba <printf_>
    80000564:	4585                	li	a1,1
    80000566:	00002517          	auipc	a0,0x2
    8000056a:	aea50513          	addi	a0,a0,-1302 # 80002050 <strcmp+0x152>
    8000056e:	14d010ef          	jal	ra,80001eba <printf_>
    80000572:	68e2                	ld	a7,24(sp)
    80000574:	6342                	ld	t1,16(sp)
    80000576:	67a2                	ld	a5,8(sp)
    80000578:	00044583          	lbu	a1,0(s0)
    8000057c:	04100713          	li	a4,65
    80000580:	02e58a63          	beq	a1,a4,800005b4 <main+0x35e>
    80000584:	00002517          	auipc	a0,0x2
    80000588:	b0c50513          	addi	a0,a0,-1268 # 80002090 <strcmp+0x192>
    8000058c:	e43e                	sd	a5,8(sp)
    8000058e:	ec46                	sd	a7,24(sp)
    80000590:	e81a                	sd	t1,16(sp)
    80000592:	7f000797          	auipc	a5,0x7f000
    80000596:	a607a723          	sw	zero,-1426(a5) # ff000000 <pass>
    8000059a:	121010ef          	jal	ra,80001eba <printf_>
    8000059e:	04100593          	li	a1,65
    800005a2:	00002517          	auipc	a0,0x2
    800005a6:	b0e50513          	addi	a0,a0,-1266 # 800020b0 <strcmp+0x1b2>
    800005aa:	111010ef          	jal	ra,80001eba <printf_>
    800005ae:	68e2                	ld	a7,24(sp)
    800005b0:	6342                	ld	t1,16(sp)
    800005b2:	67a2                	ld	a5,8(sp)
    800005b4:	000cc583          	lbu	a1,0(s9)
    800005b8:	04200713          	li	a4,66
    800005bc:	02e58a63          	beq	a1,a4,800005f0 <main+0x39a>
    800005c0:	00002517          	auipc	a0,0x2
    800005c4:	b1050513          	addi	a0,a0,-1264 # 800020d0 <strcmp+0x1d2>
    800005c8:	e43e                	sd	a5,8(sp)
    800005ca:	ec46                	sd	a7,24(sp)
    800005cc:	e81a                	sd	t1,16(sp)
    800005ce:	7f000797          	auipc	a5,0x7f000
    800005d2:	a207a923          	sw	zero,-1486(a5) # ff000000 <pass>
    800005d6:	0e5010ef          	jal	ra,80001eba <printf_>
    800005da:	04200593          	li	a1,66
    800005de:	00002517          	auipc	a0,0x2
    800005e2:	ad250513          	addi	a0,a0,-1326 # 800020b0 <strcmp+0x1b2>
    800005e6:	0d5010ef          	jal	ra,80001eba <printf_>
    800005ea:	68e2                	ld	a7,24(sp)
    800005ec:	6342                	ld	t1,16(sp)
    800005ee:	67a2                	ld	a5,8(sp)
    800005f0:	0209a583          	lw	a1,32(s3)
    800005f4:	471d                	li	a4,7
    800005f6:	02e58963          	beq	a1,a4,80000628 <main+0x3d2>
    800005fa:	00002517          	auipc	a0,0x2
    800005fe:	af650513          	addi	a0,a0,-1290 # 800020f0 <strcmp+0x1f2>
    80000602:	e43e                	sd	a5,8(sp)
    80000604:	ec46                	sd	a7,24(sp)
    80000606:	e81a                	sd	t1,16(sp)
    80000608:	7f000797          	auipc	a5,0x7f000
    8000060c:	9e07ac23          	sw	zero,-1544(a5) # ff000000 <pass>
    80000610:	0ab010ef          	jal	ra,80001eba <printf_>
    80000614:	459d                	li	a1,7
    80000616:	00002517          	auipc	a0,0x2
    8000061a:	a3a50513          	addi	a0,a0,-1478 # 80002050 <strcmp+0x152>
    8000061e:	09d010ef          	jal	ra,80001eba <printf_>
    80000622:	68e2                	ld	a7,24(sp)
    80000624:	6342                	ld	t1,16(sp)
    80000626:	67a2                	ld	a5,8(sp)
    80000628:	65c92583          	lw	a1,1628(s2)
    8000062c:	4751                	li	a4,20
    8000062e:	02e58863          	beq	a1,a4,8000065e <main+0x408>
    80000632:	00002517          	auipc	a0,0x2
    80000636:	ade50513          	addi	a0,a0,-1314 # 80002110 <strcmp+0x212>
    8000063a:	e43e                	sd	a5,8(sp)
    8000063c:	ec46                	sd	a7,24(sp)
    8000063e:	e81a                	sd	t1,16(sp)
    80000640:	7f000797          	auipc	a5,0x7f000
    80000644:	9c07a023          	sw	zero,-1600(a5) # ff000000 <pass>
    80000648:	073010ef          	jal	ra,80001eba <printf_>
    8000064c:	00002517          	auipc	a0,0x2
    80000650:	ae450513          	addi	a0,a0,-1308 # 80002130 <strcmp+0x232>
    80000654:	067010ef          	jal	ra,80001eba <printf_>
    80000658:	68e2                	ld	a7,24(sp)
    8000065a:	6342                	ld	t1,16(sp)
    8000065c:	67a2                	ld	a5,8(sp)
    8000065e:	000bb703          	ld	a4,0(s7)
    80000662:	470c                	lw	a1,8(a4)
    80000664:	c985                	beqz	a1,80000694 <main+0x43e>
    80000666:	00002517          	auipc	a0,0x2
    8000066a:	afa50513          	addi	a0,a0,-1286 # 80002160 <strcmp+0x262>
    8000066e:	e43e                	sd	a5,8(sp)
    80000670:	ec46                	sd	a7,24(sp)
    80000672:	e81a                	sd	t1,16(sp)
    80000674:	7f000797          	auipc	a5,0x7f000
    80000678:	9807a623          	sw	zero,-1652(a5) # ff000000 <pass>
    8000067c:	03f010ef          	jal	ra,80001eba <printf_>
    80000680:	4581                	li	a1,0
    80000682:	00002517          	auipc	a0,0x2
    80000686:	9ce50513          	addi	a0,a0,-1586 # 80002050 <strcmp+0x152>
    8000068a:	031010ef          	jal	ra,80001eba <printf_>
    8000068e:	68e2                	ld	a7,24(sp)
    80000690:	6342                	ld	t1,16(sp)
    80000692:	67a2                	ld	a5,8(sp)
    80000694:	000bb683          	ld	a3,0(s7)
    80000698:	4709                	li	a4,2
    8000069a:	46cc                	lw	a1,12(a3)
    8000069c:	02e58963          	beq	a1,a4,800006ce <main+0x478>
    800006a0:	00002517          	auipc	a0,0x2
    800006a4:	ae850513          	addi	a0,a0,-1304 # 80002188 <strcmp+0x28a>
    800006a8:	e43e                	sd	a5,8(sp)
    800006aa:	ec46                	sd	a7,24(sp)
    800006ac:	e81a                	sd	t1,16(sp)
    800006ae:	7f000797          	auipc	a5,0x7f000
    800006b2:	9407a923          	sw	zero,-1710(a5) # ff000000 <pass>
    800006b6:	005010ef          	jal	ra,80001eba <printf_>
    800006ba:	4589                	li	a1,2
    800006bc:	00002517          	auipc	a0,0x2
    800006c0:	99450513          	addi	a0,a0,-1644 # 80002050 <strcmp+0x152>
    800006c4:	7f6010ef          	jal	ra,80001eba <printf_>
    800006c8:	68e2                	ld	a7,24(sp)
    800006ca:	6342                	ld	t1,16(sp)
    800006cc:	67a2                	ld	a5,8(sp)
    800006ce:	000bb683          	ld	a3,0(s7)
    800006d2:	4745                	li	a4,17
    800006d4:	4a8c                	lw	a1,16(a3)
    800006d6:	02e58963          	beq	a1,a4,80000708 <main+0x4b2>
    800006da:	00002517          	auipc	a0,0x2
    800006de:	ad650513          	addi	a0,a0,-1322 # 800021b0 <strcmp+0x2b2>
    800006e2:	e43e                	sd	a5,8(sp)
    800006e4:	ec46                	sd	a7,24(sp)
    800006e6:	e81a                	sd	t1,16(sp)
    800006e8:	7f000797          	auipc	a5,0x7f000
    800006ec:	9007ac23          	sw	zero,-1768(a5) # ff000000 <pass>
    800006f0:	7ca010ef          	jal	ra,80001eba <printf_>
    800006f4:	45c5                	li	a1,17
    800006f6:	00002517          	auipc	a0,0x2
    800006fa:	95a50513          	addi	a0,a0,-1702 # 80002050 <strcmp+0x152>
    800006fe:	7bc010ef          	jal	ra,80001eba <printf_>
    80000702:	68e2                	ld	a7,24(sp)
    80000704:	6342                	ld	t1,16(sp)
    80000706:	67a2                	ld	a5,8(sp)
    80000708:	000bb503          	ld	a0,0(s7)
    8000070c:	00002597          	auipc	a1,0x2
    80000710:	82458593          	addi	a1,a1,-2012 # 80001f30 <strcmp+0x32>
    80000714:	ec46                	sd	a7,24(sp)
    80000716:	0551                	addi	a0,a0,20
    80000718:	e81a                	sd	t1,16(sp)
    8000071a:	e43e                	sd	a5,8(sp)
    8000071c:	7e2010ef          	jal	ra,80001efe <strcmp>
    80000720:	67a2                	ld	a5,8(sp)
    80000722:	6342                	ld	t1,16(sp)
    80000724:	68e2                	ld	a7,24(sp)
    80000726:	c51d                	beqz	a0,80000754 <main+0x4fe>
    80000728:	000bb583          	ld	a1,0(s7)
    8000072c:	00002517          	auipc	a0,0x2
    80000730:	aac50513          	addi	a0,a0,-1364 # 800021d8 <strcmp+0x2da>
    80000734:	7f000797          	auipc	a5,0x7f000
    80000738:	8c07a623          	sw	zero,-1844(a5) # ff000000 <pass>
    8000073c:	05d1                	addi	a1,a1,20
    8000073e:	77c010ef          	jal	ra,80001eba <printf_>
    80000742:	00002517          	auipc	a0,0x2
    80000746:	abe50513          	addi	a0,a0,-1346 # 80002200 <strcmp+0x302>
    8000074a:	770010ef          	jal	ra,80001eba <printf_>
    8000074e:	68e2                	ld	a7,24(sp)
    80000750:	6342                	ld	t1,16(sp)
    80000752:	67a2                	ld	a5,8(sp)
    80000754:	7f002717          	auipc	a4,0x7f002
    80000758:	4dc70713          	addi	a4,a4,1244 # ff002c30 <Next_Ptr_Glob>
    8000075c:	6318                	ld	a4,0(a4)
    8000075e:	470c                	lw	a1,8(a4)
    80000760:	c985                	beqz	a1,80000790 <main+0x53a>
    80000762:	00002517          	auipc	a0,0x2
    80000766:	ad650513          	addi	a0,a0,-1322 # 80002238 <strcmp+0x33a>
    8000076a:	e43e                	sd	a5,8(sp)
    8000076c:	ec46                	sd	a7,24(sp)
    8000076e:	e81a                	sd	t1,16(sp)
    80000770:	7f000797          	auipc	a5,0x7f000
    80000774:	8807a823          	sw	zero,-1904(a5) # ff000000 <pass>
    80000778:	742010ef          	jal	ra,80001eba <printf_>
    8000077c:	4581                	li	a1,0
    8000077e:	00002517          	auipc	a0,0x2
    80000782:	8d250513          	addi	a0,a0,-1838 # 80002050 <strcmp+0x152>
    80000786:	734010ef          	jal	ra,80001eba <printf_>
    8000078a:	68e2                	ld	a7,24(sp)
    8000078c:	6342                	ld	t1,16(sp)
    8000078e:	67a2                	ld	a5,8(sp)
    80000790:	7f002717          	auipc	a4,0x7f002
    80000794:	4a070713          	addi	a4,a4,1184 # ff002c30 <Next_Ptr_Glob>
    80000798:	6314                	ld	a3,0(a4)
    8000079a:	4705                	li	a4,1
    8000079c:	46cc                	lw	a1,12(a3)
    8000079e:	02e58963          	beq	a1,a4,800007d0 <main+0x57a>
    800007a2:	00002517          	auipc	a0,0x2
    800007a6:	abe50513          	addi	a0,a0,-1346 # 80002260 <strcmp+0x362>
    800007aa:	e43e                	sd	a5,8(sp)
    800007ac:	ec46                	sd	a7,24(sp)
    800007ae:	e81a                	sd	t1,16(sp)
    800007b0:	7f000797          	auipc	a5,0x7f000
    800007b4:	8407a823          	sw	zero,-1968(a5) # ff000000 <pass>
    800007b8:	702010ef          	jal	ra,80001eba <printf_>
    800007bc:	4585                	li	a1,1
    800007be:	00002517          	auipc	a0,0x2
    800007c2:	89250513          	addi	a0,a0,-1902 # 80002050 <strcmp+0x152>
    800007c6:	6f4010ef          	jal	ra,80001eba <printf_>
    800007ca:	68e2                	ld	a7,24(sp)
    800007cc:	6342                	ld	t1,16(sp)
    800007ce:	67a2                	ld	a5,8(sp)
    800007d0:	7f002717          	auipc	a4,0x7f002
    800007d4:	46070713          	addi	a4,a4,1120 # ff002c30 <Next_Ptr_Glob>
    800007d8:	6314                	ld	a3,0(a4)
    800007da:	4749                	li	a4,18
    800007dc:	4a8c                	lw	a1,16(a3)
    800007de:	02e58963          	beq	a1,a4,80000810 <main+0x5ba>
    800007e2:	00002517          	auipc	a0,0x2
    800007e6:	aa650513          	addi	a0,a0,-1370 # 80002288 <strcmp+0x38a>
    800007ea:	e43e                	sd	a5,8(sp)
    800007ec:	ec46                	sd	a7,24(sp)
    800007ee:	e81a                	sd	t1,16(sp)
    800007f0:	7f000797          	auipc	a5,0x7f000
    800007f4:	8007a823          	sw	zero,-2032(a5) # ff000000 <pass>
    800007f8:	6c2010ef          	jal	ra,80001eba <printf_>
    800007fc:	45c9                	li	a1,18
    800007fe:	00002517          	auipc	a0,0x2
    80000802:	85250513          	addi	a0,a0,-1966 # 80002050 <strcmp+0x152>
    80000806:	6b4010ef          	jal	ra,80001eba <printf_>
    8000080a:	68e2                	ld	a7,24(sp)
    8000080c:	6342                	ld	t1,16(sp)
    8000080e:	67a2                	ld	a5,8(sp)
    80000810:	7f002417          	auipc	s0,0x7f002
    80000814:	42040413          	addi	s0,s0,1056 # ff002c30 <Next_Ptr_Glob>
    80000818:	6008                	ld	a0,0(s0)
    8000081a:	00001597          	auipc	a1,0x1
    8000081e:	71658593          	addi	a1,a1,1814 # 80001f30 <strcmp+0x32>
    80000822:	ec46                	sd	a7,24(sp)
    80000824:	0551                	addi	a0,a0,20
    80000826:	e81a                	sd	t1,16(sp)
    80000828:	e43e                	sd	a5,8(sp)
    8000082a:	6d4010ef          	jal	ra,80001efe <strcmp>
    8000082e:	67a2                	ld	a5,8(sp)
    80000830:	6342                	ld	t1,16(sp)
    80000832:	68e2                	ld	a7,24(sp)
    80000834:	c515                	beqz	a0,80000860 <main+0x60a>
    80000836:	600c                	ld	a1,0(s0)
    80000838:	00002517          	auipc	a0,0x2
    8000083c:	a7850513          	addi	a0,a0,-1416 # 800022b0 <strcmp+0x3b2>
    80000840:	7efff797          	auipc	a5,0x7efff
    80000844:	7c07a023          	sw	zero,1984(a5) # ff000000 <pass>
    80000848:	05d1                	addi	a1,a1,20
    8000084a:	670010ef          	jal	ra,80001eba <printf_>
    8000084e:	00002517          	auipc	a0,0x2
    80000852:	9b250513          	addi	a0,a0,-1614 # 80002200 <strcmp+0x302>
    80000856:	664010ef          	jal	ra,80001eba <printf_>
    8000085a:	68e2                	ld	a7,24(sp)
    8000085c:	6342                	ld	t1,16(sp)
    8000085e:	67a2                	ld	a5,8(sp)
    80000860:	4715                	li	a4,5
    80000862:	02e30863          	beq	t1,a4,80000892 <main+0x63c>
    80000866:	859a                	mv	a1,t1
    80000868:	00002517          	auipc	a0,0x2
    8000086c:	a7050513          	addi	a0,a0,-1424 # 800022d8 <strcmp+0x3da>
    80000870:	e43e                	sd	a5,8(sp)
    80000872:	e846                	sd	a7,16(sp)
    80000874:	7efff797          	auipc	a5,0x7efff
    80000878:	7807a623          	sw	zero,1932(a5) # ff000000 <pass>
    8000087c:	63e010ef          	jal	ra,80001eba <printf_>
    80000880:	4595                	li	a1,5
    80000882:	00001517          	auipc	a0,0x1
    80000886:	7ce50513          	addi	a0,a0,1998 # 80002050 <strcmp+0x152>
    8000088a:	630010ef          	jal	ra,80001eba <printf_>
    8000088e:	68c2                	ld	a7,16(sp)
    80000890:	67a2                	ld	a5,8(sp)
    80000892:	4735                	li	a4,13
    80000894:	02e78663          	beq	a5,a4,800008c0 <main+0x66a>
    80000898:	85be                	mv	a1,a5
    8000089a:	00002517          	auipc	a0,0x2
    8000089e:	a5e50513          	addi	a0,a0,-1442 # 800022f8 <strcmp+0x3fa>
    800008a2:	e446                	sd	a7,8(sp)
    800008a4:	7efff797          	auipc	a5,0x7efff
    800008a8:	7407ae23          	sw	zero,1884(a5) # ff000000 <pass>
    800008ac:	60e010ef          	jal	ra,80001eba <printf_>
    800008b0:	45b5                	li	a1,13
    800008b2:	00001517          	auipc	a0,0x1
    800008b6:	79e50513          	addi	a0,a0,1950 # 80002050 <strcmp+0x152>
    800008ba:	600010ef          	jal	ra,80001eba <printf_>
    800008be:	68a2                	ld	a7,8(sp)
    800008c0:	02089463          	bnez	a7,800008e8 <main+0x692>
    800008c4:	4581                	li	a1,0
    800008c6:	00002517          	auipc	a0,0x2
    800008ca:	a5250513          	addi	a0,a0,-1454 # 80002318 <strcmp+0x41a>
    800008ce:	7efff797          	auipc	a5,0x7efff
    800008d2:	7207a923          	sw	zero,1842(a5) # ff000000 <pass>
    800008d6:	5e4010ef          	jal	ra,80001eba <printf_>
    800008da:	4585                	li	a1,1
    800008dc:	00001517          	auipc	a0,0x1
    800008e0:	77450513          	addi	a0,a0,1908 # 80002050 <strcmp+0x152>
    800008e4:	5d6010ef          	jal	ra,80001eba <printf_>
    800008e8:	00001597          	auipc	a1,0x1
    800008ec:	66858593          	addi	a1,a1,1640 # 80001f50 <strcmp+0x52>
    800008f0:	1008                	addi	a0,sp,32
    800008f2:	60c010ef          	jal	ra,80001efe <strcmp>
    800008f6:	c115                	beqz	a0,8000091a <main+0x6c4>
    800008f8:	100c                	addi	a1,sp,32
    800008fa:	00002517          	auipc	a0,0x2
    800008fe:	a3e50513          	addi	a0,a0,-1474 # 80002338 <strcmp+0x43a>
    80000902:	7efff797          	auipc	a5,0x7efff
    80000906:	6e07af23          	sw	zero,1790(a5) # ff000000 <pass>
    8000090a:	5b0010ef          	jal	ra,80001eba <printf_>
    8000090e:	00002517          	auipc	a0,0x2
    80000912:	a4a50513          	addi	a0,a0,-1462 # 80002358 <strcmp+0x45a>
    80000916:	5a4010ef          	jal	ra,80001eba <printf_>
    8000091a:	00001597          	auipc	a1,0x1
    8000091e:	6b658593          	addi	a1,a1,1718 # 80001fd0 <strcmp+0xd2>
    80000922:	0088                	addi	a0,sp,64
    80000924:	5da010ef          	jal	ra,80001efe <strcmp>
    80000928:	c115                	beqz	a0,8000094c <main+0x6f6>
    8000092a:	008c                	addi	a1,sp,64
    8000092c:	00002517          	auipc	a0,0x2
    80000930:	a6450513          	addi	a0,a0,-1436 # 80002390 <strcmp+0x492>
    80000934:	7efff797          	auipc	a5,0x7efff
    80000938:	6c07a623          	sw	zero,1740(a5) # ff000000 <pass>
    8000093c:	57e010ef          	jal	ra,80001eba <printf_>
    80000940:	00002517          	auipc	a0,0x2
    80000944:	a7050513          	addi	a0,a0,-1424 # 800023b0 <strcmp+0x4b2>
    80000948:	572010ef          	jal	ra,80001eba <printf_>
    8000094c:	7f002797          	auipc	a5,0x7f002
    80000950:	29c78793          	addi	a5,a5,668 # ff002be8 <cycle>
    80000954:	639c                	ld	a5,0(a5)
    80000956:	00002717          	auipc	a4,0x2
    8000095a:	00a72787          	flw	fa5,10(a4) # 80002960 <pow10.0+0x50>
    8000095e:	00002717          	auipc	a4,0x2
    80000962:	00672707          	flw	fa4,6(a4) # 80002964 <pow10.0+0x54>
    80000966:	d037f6d3          	fcvt.s.lu	fa3,a5
    8000096a:	00002597          	auipc	a1,0x2
    8000096e:	0065b583          	ld	a1,6(a1) # 80002970 <pow10.0+0x60>
    80000972:	00002517          	auipc	a0,0x2
    80000976:	a7650513          	addi	a0,a0,-1418 # 800023e8 <strcmp+0x4ea>
    8000097a:	18d7f7d3          	fdiv.s	fa5,fa5,fa3
    8000097e:	e0078453          	fmv.x.w	s0,fa5
    80000982:	18d777d3          	fdiv.s	fa5,fa4,fa3
    80000986:	e00784d3          	fmv.x.w	s1,fa5
    8000098a:	530010ef          	jal	ra,80001eba <printf_>
    8000098e:	00002517          	auipc	a0,0x2
    80000992:	a7250513          	addi	a0,a0,-1422 # 80002400 <strcmp+0x502>
    80000996:	524010ef          	jal	ra,80001eba <printf_>
    8000099a:	7efff797          	auipc	a5,0x7efff
    8000099e:	6667a783          	lw	a5,1638(a5) # ff000000 <pass>
    800009a2:	00001597          	auipc	a1,0x1
    800009a6:	57e58593          	addi	a1,a1,1406 # 80001f20 <strcmp+0x22>
    800009aa:	e789                	bnez	a5,800009b4 <main+0x75e>
    800009ac:	00001597          	auipc	a1,0x1
    800009b0:	57c58593          	addi	a1,a1,1404 # 80001f28 <strcmp+0x2a>
    800009b4:	00002517          	auipc	a0,0x2
    800009b8:	a8450513          	addi	a0,a0,-1404 # 80002438 <strcmp+0x53a>
    800009bc:	4fe010ef          	jal	ra,80001eba <printf_>
    800009c0:	f00407d3          	fmv.w.x	fa5,s0
    800009c4:	00002517          	auipc	a0,0x2
    800009c8:	a8450513          	addi	a0,a0,-1404 # 80002448 <strcmp+0x54a>
    800009cc:	420787d3          	fcvt.d.s	fa5,fa5
    800009d0:	e20785d3          	fmv.x.d	a1,fa5
    800009d4:	4e6010ef          	jal	ra,80001eba <printf_>
    800009d8:	00002917          	auipc	s2,0x2
    800009dc:	f9092903          	lw	s2,-112(s2) # 80002968 <pow10.0+0x58>
    800009e0:	f0090753          	fmv.w.x	fa4,s2
    800009e4:	f00407d3          	fmv.w.x	fa5,s0
    800009e8:	00002517          	auipc	a0,0x2
    800009ec:	a8050513          	addi	a0,a0,-1408 # 80002468 <strcmp+0x56a>
    800009f0:	18e7f7d3          	fdiv.s	fa5,fa5,fa4
    800009f4:	420787d3          	fcvt.d.s	fa5,fa5
    800009f8:	e20785d3          	fmv.x.d	a1,fa5
    800009fc:	4be010ef          	jal	ra,80001eba <printf_>
    80000a00:	f0090753          	fmv.w.x	fa4,s2
    80000a04:	f00487d3          	fmv.w.x	fa5,s1
    80000a08:	00002517          	auipc	a0,0x2
    80000a0c:	a7050513          	addi	a0,a0,-1424 # 80002478 <strcmp+0x57a>
    80000a10:	18e7f7d3          	fdiv.s	fa5,fa5,fa4
    80000a14:	420787d3          	fcvt.d.s	fa5,fa5
    80000a18:	e20785d3          	fmv.x.d	a1,fa5
    80000a1c:	49e010ef          	jal	ra,80001eba <printf_>
    80000a20:	60ae                	ld	ra,200(sp)
    80000a22:	640e                	ld	s0,192(sp)
    80000a24:	74ea                	ld	s1,184(sp)
    80000a26:	794a                	ld	s2,176(sp)
    80000a28:	79aa                	ld	s3,168(sp)
    80000a2a:	7a0a                	ld	s4,160(sp)
    80000a2c:	6aea                	ld	s5,152(sp)
    80000a2e:	6b4a                	ld	s6,144(sp)
    80000a30:	6baa                	ld	s7,136(sp)
    80000a32:	6c0a                	ld	s8,128(sp)
    80000a34:	7ce6                	ld	s9,120(sp)
    80000a36:	7d46                	ld	s10,112(sp)
    80000a38:	7da6                	ld	s11,104(sp)
    80000a3a:	4501                	li	a0,0
    80000a3c:	6169                	addi	sp,sp,208
    80000a3e:	8082                	ret
    80000a40:	01840023          	sb	s8,0(s0)
    80000a44:	4705                	li	a4,1
    80000a46:	9ce89ee3          	bne	a7,a4,80000422 <main+0x1cc>
    80000a4a:	bacd                	j	8000043c <main+0x1e6>

Disassembly of section .text._ioe_init:

0000000080000a4c <_ioe_init>:
    80000a4c:	1141                	addi	sp,sp,-16
    80000a4e:	e406                	sd	ra,8(sp)
    80000a50:	358000ef          	jal	ra,80000da8 <__am_vga_init>
    80000a54:	2dc000ef          	jal	ra,80000d30 <__am_timer_init>
    80000a58:	374000ef          	jal	ra,80000dcc <__am_audio_init>
    80000a5c:	60a2                	ld	ra,8(sp)
    80000a5e:	4501                	li	a0,0
    80000a60:	0141                	addi	sp,sp,16
    80000a62:	8082                	ret

Disassembly of section .text._io_read:

0000000080000a64 <_io_read>:
    80000a64:	67ad                	lui	a5,0xb
    80000a66:	872a                	mv	a4,a0
    80000a68:	c0478813          	addi	a6,a5,-1020 # ac04 <_start-0x7fff53fc>
    80000a6c:	852e                	mv	a0,a1
    80000a6e:	85b2                	mv	a1,a2
    80000a70:	8636                	mv	a2,a3
    80000a72:	03070263          	beq	a4,a6,80000a96 <_io_read+0x32>
    80000a76:	00e86b63          	bltu	a6,a4,80000a8c <_io_read+0x28>
    80000a7a:	c0278693          	addi	a3,a5,-1022
    80000a7e:	00d70f63          	beq	a4,a3,80000a9c <_io_read+0x38>
    80000a82:	c0378793          	addi	a5,a5,-1021
    80000a86:	00f71963          	bne	a4,a5,80000a98 <_io_read+0x34>
    80000a8a:	a2f5                	j	80000c76 <__am_timer_read>
    80000a8c:	c0778793          	addi	a5,a5,-1017
    80000a90:	00f71463          	bne	a4,a5,80000a98 <_io_read+0x34>
    80000a94:	ae2d                	j	80000dce <__am_audio_read>
    80000a96:	ac45                	j	80000d46 <__am_video_read>
    80000a98:	4501                	li	a0,0
    80000a9a:	8082                	ret
    80000a9c:	a009                	j	80000a9e <__am_input_read>

Disassembly of section .text.__am_input_read:

0000000080000a9e <__am_input_read>:
    80000a9e:	4785                	li	a5,1
    80000aa0:	00f50463          	beq	a0,a5,80000aa8 <__am_input_read+0xa>
    80000aa4:	4501                	li	a0,0
    80000aa6:	8082                	ret
    80000aa8:	7179                	addi	sp,sp,-48
    80000aaa:	e84a                	sd	s2,16(sp)
    80000aac:	7f002917          	auipc	s2,0x7f002
    80000ab0:	19890913          	addi	s2,s2,408 # ff002c44 <last_release.2>
    80000ab4:	00092783          	lw	a5,0(s2)
    80000ab8:	f022                	sd	s0,32(sp)
    80000aba:	ec26                	sd	s1,24(sp)
    80000abc:	f406                	sd	ra,40(sp)
    80000abe:	e44e                	sd	s3,8(sp)
    80000ac0:	00058023          	sb	zero,0(a1)
    80000ac4:	000580a3          	sb	zero,1(a1)
    80000ac8:	00058123          	sb	zero,2(a1)
    80000acc:	000581a3          	sb	zero,3(a1)
    80000ad0:	00058223          	sb	zero,4(a1)
    80000ad4:	000582a3          	sb	zero,5(a1)
    80000ad8:	00058323          	sb	zero,6(a1)
    80000adc:	000583a3          	sb	zero,7(a1)
    80000ae0:	84aa                	mv	s1,a0
    80000ae2:	842e                	mv	s0,a1
    80000ae4:	14079263          	bnez	a5,80000c28 <__am_input_read+0x18a>
    80000ae8:	3a0000ef          	jal	ra,80000e88 <__am_uartlite_getchar>
    80000aec:	0ff00793          	li	a5,255
    80000af0:	06f50b63          	beq	a0,a5,80000b66 <__am_input_read+0xc8>
    80000af4:	0005079b          	sext.w	a5,a0
    80000af8:	07f00713          	li	a4,127
    80000afc:	14f76e63          	bltu	a4,a5,80000c58 <__am_input_read+0x1ba>
    80000b00:	00002797          	auipc	a5,0x2
    80000b04:	9f878793          	addi	a5,a5,-1544 # 800024f8 <am_keycode>
    80000b08:	20f54533          	sh2add	a0,a0,a5
    80000b0c:	411c                	lw	a5,0(a0)
    80000b0e:	7f002997          	auipc	s3,0x7f002
    80000b12:	13298993          	addi	s3,s3,306 # ff002c40 <last_key.1>
    80000b16:	0009a703          	lw	a4,0(s3)
    80000b1a:	cfa1                	beqz	a5,80000b72 <__am_input_read+0xd4>
    80000b1c:	cb4d                	beqz	a4,80000bce <__am_input_read+0x130>
    80000b1e:	0ae78863          	beq	a5,a4,80000bce <__am_input_read+0x130>
    80000b22:	0087559b          	srliw	a1,a4,0x8
    80000b26:	0107561b          	srliw	a2,a4,0x10
    80000b2a:	0187569b          	srliw	a3,a4,0x18
    80000b2e:	00040023          	sb	zero,0(s0)
    80000b32:	000400a3          	sb	zero,1(s0)
    80000b36:	00040123          	sb	zero,2(s0)
    80000b3a:	000401a3          	sb	zero,3(s0)
    80000b3e:	00e40223          	sb	a4,4(s0)
    80000b42:	00b402a3          	sb	a1,5(s0)
    80000b46:	00c40323          	sb	a2,6(s0)
    80000b4a:	00d403a3          	sb	a3,7(s0)
    80000b4e:	00f9a023          	sw	a5,0(s3)
    80000b52:	00992023          	sw	s1,0(s2)
    80000b56:	4521                	li	a0,8
    80000b58:	70a2                	ld	ra,40(sp)
    80000b5a:	7402                	ld	s0,32(sp)
    80000b5c:	64e2                	ld	s1,24(sp)
    80000b5e:	6942                	ld	s2,16(sp)
    80000b60:	69a2                	ld	s3,8(sp)
    80000b62:	6145                	addi	sp,sp,48
    80000b64:	8082                	ret
    80000b66:	7f002997          	auipc	s3,0x7f002
    80000b6a:	0da98993          	addi	s3,s3,218 # ff002c40 <last_key.1>
    80000b6e:	0009a703          	lw	a4,0(s3)
    80000b72:	d375                	beqz	a4,80000b56 <__am_input_read+0xb8>
    80000b74:	32e000ef          	jal	ra,80000ea2 <uptime>
    80000b78:	7f002697          	auipc	a3,0x7f002
    80000b7c:	0d06b683          	ld	a3,208(a3) # ff002c48 <timestamp.0>
    80000b80:	080507bb          	zext.w	a5,a0
    80000b84:	1f400713          	li	a4,500
    80000b88:	8f95                	sub	a5,a5,a3
    80000b8a:	fcf776e3          	bgeu	a4,a5,80000b56 <__am_input_read+0xb8>
    80000b8e:	0009a783          	lw	a5,0(s3)
    80000b92:	0009c603          	lbu	a2,0(s3)
    80000b96:	00040023          	sb	zero,0(s0)
    80000b9a:	0087d69b          	srliw	a3,a5,0x8
    80000b9e:	0107d71b          	srliw	a4,a5,0x10
    80000ba2:	0187d79b          	srliw	a5,a5,0x18
    80000ba6:	00f403a3          	sb	a5,7(s0)
    80000baa:	000400a3          	sb	zero,1(s0)
    80000bae:	00040123          	sb	zero,2(s0)
    80000bb2:	000401a3          	sb	zero,3(s0)
    80000bb6:	00c40223          	sb	a2,4(s0)
    80000bba:	00d402a3          	sb	a3,5(s0)
    80000bbe:	00e40323          	sb	a4,6(s0)
    80000bc2:	7f002797          	auipc	a5,0x7f002
    80000bc6:	0607af23          	sw	zero,126(a5) # ff002c40 <last_key.1>
    80000bca:	4521                	li	a0,8
    80000bcc:	b771                	j	80000b58 <__am_input_read+0xba>
    80000bce:	0087d61b          	srliw	a2,a5,0x8
    80000bd2:	0107d69b          	srliw	a3,a5,0x10
    80000bd6:	0187d71b          	srliw	a4,a5,0x18
    80000bda:	4585                	li	a1,1
    80000bdc:	00b40023          	sb	a1,0(s0)
    80000be0:	000400a3          	sb	zero,1(s0)
    80000be4:	00040123          	sb	zero,2(s0)
    80000be8:	000401a3          	sb	zero,3(s0)
    80000bec:	00f40223          	sb	a5,4(s0)
    80000bf0:	00c402a3          	sb	a2,5(s0)
    80000bf4:	00d40323          	sb	a3,6(s0)
    80000bf8:	00e403a3          	sb	a4,7(s0)
    80000bfc:	00f9a023          	sw	a5,0(s3)
    80000c00:	7f002797          	auipc	a5,0x7f002
    80000c04:	0407a223          	sw	zero,68(a5) # ff002c44 <last_release.2>
    80000c08:	29a000ef          	jal	ra,80000ea2 <uptime>
    80000c0c:	70a2                	ld	ra,40(sp)
    80000c0e:	7402                	ld	s0,32(sp)
    80000c10:	080507bb          	zext.w	a5,a0
    80000c14:	7f002717          	auipc	a4,0x7f002
    80000c18:	02f73a23          	sd	a5,52(a4) # ff002c48 <timestamp.0>
    80000c1c:	64e2                	ld	s1,24(sp)
    80000c1e:	6942                	ld	s2,16(sp)
    80000c20:	69a2                	ld	s3,8(sp)
    80000c22:	4521                	li	a0,8
    80000c24:	6145                	addi	sp,sp,48
    80000c26:	8082                	ret
    80000c28:	7f002717          	auipc	a4,0x7f002
    80000c2c:	01870713          	addi	a4,a4,24 # ff002c40 <last_key.1>
    80000c30:	431c                	lw	a5,0(a4)
    80000c32:	00074603          	lbu	a2,0(a4)
    80000c36:	00a58023          	sb	a0,0(a1)
    80000c3a:	0087d69b          	srliw	a3,a5,0x8
    80000c3e:	0107d71b          	srliw	a4,a5,0x10
    80000c42:	0187d79b          	srliw	a5,a5,0x18
    80000c46:	00c58223          	sb	a2,4(a1)
    80000c4a:	00d582a3          	sb	a3,5(a1)
    80000c4e:	00e58323          	sb	a4,6(a1)
    80000c52:	00f583a3          	sb	a5,7(a1)
    80000c56:	b76d                	j	80000c00 <__am_input_read+0x162>
    80000c58:	02c00613          	li	a2,44
    80000c5c:	00002597          	auipc	a1,0x2
    80000c60:	82c58593          	addi	a1,a1,-2004 # 80002488 <strcmp+0x58a>
    80000c64:	00002517          	auipc	a0,0x2
    80000c68:	87450513          	addi	a0,a0,-1932 # 800024d8 <strcmp+0x5da>
    80000c6c:	24e010ef          	jal	ra,80001eba <printf_>
    80000c70:	4505                	li	a0,1
    80000c72:	162000ef          	jal	ra,80000dd4 <_halt>

Disassembly of section .text.__am_timer_read:

0000000080000c76 <__am_timer_read>:
    80000c76:	4785                	li	a5,1
    80000c78:	06f50b63          	beq	a0,a5,80000cee <__am_timer_read+0x78>
    80000c7c:	4789                	li	a5,2
    80000c7e:	06f51663          	bne	a0,a5,80000cea <__am_timer_read+0x74>
    80000c82:	5789                	li	a5,-30
    80000c84:	00f58023          	sb	a5,0(a1)
    80000c88:	479d                	li	a5,7
    80000c8a:	00058a23          	sb	zero,20(a1)
    80000c8e:	00058aa3          	sb	zero,21(a1)
    80000c92:	00058b23          	sb	zero,22(a1)
    80000c96:	00058ba3          	sb	zero,23(a1)
    80000c9a:	00058823          	sb	zero,16(a1)
    80000c9e:	000588a3          	sb	zero,17(a1)
    80000ca2:	00058923          	sb	zero,18(a1)
    80000ca6:	000589a3          	sb	zero,19(a1)
    80000caa:	00058623          	sb	zero,12(a1)
    80000cae:	000586a3          	sb	zero,13(a1)
    80000cb2:	00058723          	sb	zero,14(a1)
    80000cb6:	000587a3          	sb	zero,15(a1)
    80000cba:	00058423          	sb	zero,8(a1)
    80000cbe:	000584a3          	sb	zero,9(a1)
    80000cc2:	00058523          	sb	zero,10(a1)
    80000cc6:	000585a3          	sb	zero,11(a1)
    80000cca:	00058223          	sb	zero,4(a1)
    80000cce:	000582a3          	sb	zero,5(a1)
    80000cd2:	00058323          	sb	zero,6(a1)
    80000cd6:	000583a3          	sb	zero,7(a1)
    80000cda:	00f580a3          	sb	a5,1(a1)
    80000cde:	00058123          	sb	zero,2(a1)
    80000ce2:	000581a3          	sb	zero,3(a1)
    80000ce6:	4561                	li	a0,24
    80000ce8:	8082                	ret
    80000cea:	4501                	li	a0,0
    80000cec:	8082                	ret
    80000cee:	0a100793          	li	a5,161
    80000cf2:	07e2                	slli	a5,a5,0x18
    80000cf4:	67bc                	ld	a5,72(a5)
    80000cf6:	7f002717          	auipc	a4,0x7f002
    80000cfa:	f5a73703          	ld	a4,-166(a4) # ff002c50 <boot_time>
    80000cfe:	00058023          	sb	zero,0(a1)
    80000d02:	9f99                	subw	a5,a5,a4
    80000d04:	0087d61b          	srliw	a2,a5,0x8
    80000d08:	0107d69b          	srliw	a3,a5,0x10
    80000d0c:	0187d71b          	srliw	a4,a5,0x18
    80000d10:	000580a3          	sb	zero,1(a1)
    80000d14:	00058123          	sb	zero,2(a1)
    80000d18:	000581a3          	sb	zero,3(a1)
    80000d1c:	00f58223          	sb	a5,4(a1)
    80000d20:	00c582a3          	sb	a2,5(a1)
    80000d24:	00d58323          	sb	a3,6(a1)
    80000d28:	00e583a3          	sb	a4,7(a1)
    80000d2c:	4521                	li	a0,8
    80000d2e:	8082                	ret

Disassembly of section .text.__am_timer_init:

0000000080000d30 <__am_timer_init>:
    80000d30:	0a100793          	li	a5,161
    80000d34:	07e2                	slli	a5,a5,0x18
    80000d36:	67bc                	ld	a5,72(a5)
    80000d38:	080787bb          	zext.w	a5,a5
    80000d3c:	7f002717          	auipc	a4,0x7f002
    80000d40:	f0f73a23          	sd	a5,-236(a4) # ff002c50 <boot_time>
    80000d44:	8082                	ret

Disassembly of section .text.__am_video_read:

0000000080000d46 <__am_video_read>:
    80000d46:	4785                	li	a5,1
    80000d48:	00f50463          	beq	a0,a5,80000d50 <__am_video_read+0xa>
    80000d4c:	4501                	li	a0,0
    80000d4e:	8082                	ret
    80000d50:	7f002617          	auipc	a2,0x7f002
    80000d54:	f0c60613          	addi	a2,a2,-244 # ff002c5c <W>
    80000d58:	7f002697          	auipc	a3,0x7f002
    80000d5c:	f0068693          	addi	a3,a3,-256 # ff002c58 <H>
    80000d60:	4218                	lw	a4,0(a2)
    80000d62:	429c                	lw	a5,0(a3)
    80000d64:	0006c503          	lbu	a0,0(a3)
    80000d68:	00064303          	lbu	t1,0(a2)
    80000d6c:	0087589b          	srliw	a7,a4,0x8
    80000d70:	0107581b          	srliw	a6,a4,0x10
    80000d74:	0087d61b          	srliw	a2,a5,0x8
    80000d78:	0107d69b          	srliw	a3,a5,0x10
    80000d7c:	0187571b          	srliw	a4,a4,0x18
    80000d80:	0187d79b          	srliw	a5,a5,0x18
    80000d84:	00a58223          	sb	a0,4(a1)
    80000d88:	00658023          	sb	t1,0(a1)
    80000d8c:	011580a3          	sb	a7,1(a1)
    80000d90:	01058123          	sb	a6,2(a1)
    80000d94:	00e581a3          	sb	a4,3(a1)
    80000d98:	00c582a3          	sb	a2,5(a1)
    80000d9c:	00d58323          	sb	a3,6(a1)
    80000da0:	00f583a3          	sb	a5,7(a1)
    80000da4:	4521                	li	a0,8
    80000da6:	8082                	ret

Disassembly of section .text.__am_vga_init:

0000000080000da8 <__am_vga_init>:
    80000da8:	0a100793          	li	a5,161
    80000dac:	07e2                	slli	a5,a5,0x18
    80000dae:	1007a783          	lw	a5,256(a5)
    80000db2:	0107d71b          	srliw	a4,a5,0x10
    80000db6:	7f002697          	auipc	a3,0x7f002
    80000dba:	eae6a323          	sw	a4,-346(a3) # ff002c5c <W>
    80000dbe:	0807c7bb          	zext.h	a5,a5
    80000dc2:	7f002717          	auipc	a4,0x7f002
    80000dc6:	e8f72b23          	sw	a5,-362(a4) # ff002c58 <H>
    80000dca:	8082                	ret

Disassembly of section .text.__am_audio_init:

0000000080000dcc <__am_audio_init>:
    80000dcc:	8082                	ret

Disassembly of section .text.__am_audio_read:

0000000080000dce <__am_audio_read>:
    80000dce:	4501                	li	a0,0
    80000dd0:	8082                	ret

Disassembly of section .text._putc:

0000000080000dd2 <_putc>:
    80000dd2:	a069                	j	80000e5c <__am_uartlite_putchar>

Disassembly of section .text._halt:

0000000080000dd4 <_halt>:
    80000dd4:	1141                	addi	sp,sp,-16
    80000dd6:	e406                	sd	ra,8(sp)
    80000dd8:	85aa                	mv	a1,a0
    80000dda:	852a                	mv	a0,a0
    80000ddc:	0005006b          	0x5006b
    80000de0:	00002517          	auipc	a0,0x2
    80000de4:	91850513          	addi	a0,a0,-1768 # 800026f8 <am_keycode+0x200>
    80000de8:	0d2010ef          	jal	ra,80001eba <printf_>
    80000dec:	a001                	j	80000dec <_halt+0x18>

Disassembly of section .text._trm_init:

0000000080000dee <_trm_init>:
    80000dee:	1141                	addi	sp,sp,-16
    80000df0:	e406                	sd	ra,8(sp)
    80000df2:	7efff797          	auipc	a5,0x7efff
    80000df6:	20e78793          	addi	a5,a5,526 # ff000000 <pass>
    80000dfa:	7efff617          	auipc	a2,0x7efff
    80000dfe:	21660613          	addi	a2,a2,534 # ff000010 <Arr_1_Glob>
    80000e02:	00c78e63          	beq	a5,a2,80000e1e <_trm_init+0x30>
    80000e06:	00002717          	auipc	a4,0x2
    80000e0a:	c0a70713          	addi	a4,a4,-1014 # 80002a10 <_sidata>
    80000e0e:	00074683          	lbu	a3,0(a4)
    80000e12:	0785                	addi	a5,a5,1
    80000e14:	0705                	addi	a4,a4,1
    80000e16:	fed78fa3          	sb	a3,-1(a5)
    80000e1a:	fec79ae3          	bne	a5,a2,80000e0e <_trm_init+0x20>
    80000e1e:	7efff797          	auipc	a5,0x7efff
    80000e22:	1f278793          	addi	a5,a5,498 # ff000010 <Arr_1_Glob>
    80000e26:	7f002717          	auipc	a4,0x7f002
    80000e2a:	e3a70713          	addi	a4,a4,-454 # ff002c60 <_bss_end>
    80000e2e:	00e78763          	beq	a5,a4,80000e3c <_trm_init+0x4e>
    80000e32:	00078023          	sb	zero,0(a5)
    80000e36:	0785                	addi	a5,a5,1
    80000e38:	fee79de3          	bne	a5,a4,80000e32 <_trm_init+0x44>
    80000e3c:	014000ef          	jal	ra,80000e50 <__am_init_uartlite>
    80000e40:	00002517          	auipc	a0,0x2
    80000e44:	8cd50513          	addi	a0,a0,-1843 # 8000270d <__am_mainargs>
    80000e48:	c0eff0ef          	jal	ra,80000256 <main>
    80000e4c:	f89ff0ef          	jal	ra,80000dd4 <_halt>

Disassembly of section .text.__am_init_uartlite:

0000000080000e50 <__am_init_uartlite>:
    80000e50:	406007b7          	lui	a5,0x40600
    80000e54:	470d                	li	a4,3
    80000e56:	00e78623          	sb	a4,12(a5) # 4060000c <_start-0x3f9ffff4>
    80000e5a:	8082                	ret

Disassembly of section .text.__am_uartlite_putchar:

0000000080000e5c <__am_uartlite_putchar>:
    80000e5c:	47a9                	li	a5,10
    80000e5e:	00f50b63          	beq	a0,a5,80000e74 <__am_uartlite_putchar+0x18>
    80000e62:	40600737          	lui	a4,0x40600
    80000e66:	00874783          	lbu	a5,8(a4) # 40600008 <_start-0x3f9ffff8>
    80000e6a:	8ba1                	andi	a5,a5,8
    80000e6c:	ffed                	bnez	a5,80000e66 <__am_uartlite_putchar+0xa>
    80000e6e:	00a70223          	sb	a0,4(a4)
    80000e72:	8082                	ret
    80000e74:	40600737          	lui	a4,0x40600
    80000e78:	00874783          	lbu	a5,8(a4) # 40600008 <_start-0x3f9ffff8>
    80000e7c:	8ba1                	andi	a5,a5,8
    80000e7e:	ffed                	bnez	a5,80000e78 <__am_uartlite_putchar+0x1c>
    80000e80:	47b5                	li	a5,13
    80000e82:	00f70223          	sb	a5,4(a4)
    80000e86:	bff1                	j	80000e62 <__am_uartlite_putchar+0x6>

Disassembly of section .text.__am_uartlite_getchar:

0000000080000e88 <__am_uartlite_getchar>:
    80000e88:	40600737          	lui	a4,0x40600
    80000e8c:	00874783          	lbu	a5,8(a4) # 40600008 <_start-0x3f9ffff8>
    80000e90:	4501                	li	a0,0
    80000e92:	8b85                	andi	a5,a5,1
    80000e94:	e391                	bnez	a5,80000e98 <__am_uartlite_getchar+0x10>
    80000e96:	8082                	ret
    80000e98:	00074503          	lbu	a0,0(a4)
    80000e9c:	0ff57513          	zext.b	a0,a0
    80000ea0:	8082                	ret

Disassembly of section .text.uptime:

0000000080000ea2 <uptime>:
    80000ea2:	1101                	addi	sp,sp,-32
    80000ea4:	652d                	lui	a0,0xb
    80000ea6:	0030                	addi	a2,sp,8
    80000ea8:	46a1                	li	a3,8
    80000eaa:	4585                	li	a1,1
    80000eac:	c0350513          	addi	a0,a0,-1021 # ac03 <_start-0x7fff53fd>
    80000eb0:	ec06                	sd	ra,24(sp)
    80000eb2:	bb3ff0ef          	jal	ra,80000a64 <_io_read>
    80000eb6:	60e2                	ld	ra,24(sp)
    80000eb8:	4532                	lw	a0,12(sp)
    80000eba:	6105                	addi	sp,sp,32
    80000ebc:	8082                	ret

Disassembly of section .text._out_null:

0000000080000ebe <_out_null>:
    80000ebe:	8082                	ret

Disassembly of section .text._out_rev:

0000000080000ec0 <_out_rev>:
    80000ec0:	711d                	addi	sp,sp,-96
    80000ec2:	e4a6                	sd	s1,72(sp)
    80000ec4:	e0ca                	sd	s2,64(sp)
    80000ec6:	fc4e                	sd	s3,56(sp)
    80000ec8:	f852                	sd	s4,48(sp)
    80000eca:	f456                	sd	s5,40(sp)
    80000ecc:	f05a                	sd	s6,32(sp)
    80000ece:	8ab2                	mv	s5,a2
    80000ed0:	e862                	sd	s8,16(sp)
    80000ed2:	e466                	sd	s9,8(sp)
    80000ed4:	e06a                	sd	s10,0(sp)
    80000ed6:	ec86                	sd	ra,88(sp)
    80000ed8:	e8a2                	sd	s0,80(sp)
    80000eda:	ec5e                	sd	s7,24(sp)
    80000edc:	0038f613          	andi	a2,a7,3
    80000ee0:	8cc6                	mv	s9,a7
    80000ee2:	892a                	mv	s2,a0
    80000ee4:	89ae                	mv	s3,a1
    80000ee6:	8a36                	mv	s4,a3
    80000ee8:	8b3a                	mv	s6,a4
    80000eea:	8d3e                	mv	s10,a5
    80000eec:	8c42                	mv	s8,a6
    80000eee:	84d6                	mv	s1,s5
    80000ef0:	e215                	bnez	a2,80000f14 <_out_rev+0x54>
    80000ef2:	080807bb          	zext.w	a5,a6
    80000ef6:	41a784b3          	sub	s1,a5,s10
    80000efa:	94d6                	add	s1,s1,s5
    80000efc:	8456                	mv	s0,s5
    80000efe:	06fd7f63          	bgeu	s10,a5,80000f7c <_out_rev+0xbc>
    80000f02:	8622                	mv	a2,s0
    80000f04:	86d2                	mv	a3,s4
    80000f06:	0405                	addi	s0,s0,1
    80000f08:	85ce                	mv	a1,s3
    80000f0a:	02000513          	li	a0,32
    80000f0e:	9902                	jalr	s2
    80000f10:	fe9419e3          	bne	s0,s1,80000f02 <_out_rev+0x42>
    80000f14:	01ab0433          	add	s0,s6,s10
    80000f18:	00848bb3          	add	s7,s1,s0
    80000f1c:	000d0d63          	beqz	s10,80000f36 <_out_rev+0x76>
    80000f20:	fff44503          	lbu	a0,-1(s0)
    80000f24:	408b8633          	sub	a2,s7,s0
    80000f28:	86d2                	mv	a3,s4
    80000f2a:	147d                	addi	s0,s0,-1
    80000f2c:	85ce                	mv	a1,s3
    80000f2e:	9902                	jalr	s2
    80000f30:	fe8b18e3          	bne	s6,s0,80000f20 <_out_rev+0x60>
    80000f34:	94ea                	add	s1,s1,s10
    80000f36:	002cfc93          	andi	s9,s9,2
    80000f3a:	020c8263          	beqz	s9,80000f5e <_out_rev+0x9e>
    80000f3e:	41548ab3          	sub	s5,s1,s5
    80000f42:	080c0c3b          	zext.w	s8,s8
    80000f46:	018afc63          	bgeu	s5,s8,80000f5e <_out_rev+0x9e>
    80000f4a:	8626                	mv	a2,s1
    80000f4c:	0a85                	addi	s5,s5,1
    80000f4e:	86d2                	mv	a3,s4
    80000f50:	85ce                	mv	a1,s3
    80000f52:	02000513          	li	a0,32
    80000f56:	0485                	addi	s1,s1,1
    80000f58:	9902                	jalr	s2
    80000f5a:	ff8ae8e3          	bltu	s5,s8,80000f4a <_out_rev+0x8a>
    80000f5e:	60e6                	ld	ra,88(sp)
    80000f60:	6446                	ld	s0,80(sp)
    80000f62:	6906                	ld	s2,64(sp)
    80000f64:	79e2                	ld	s3,56(sp)
    80000f66:	7a42                	ld	s4,48(sp)
    80000f68:	7aa2                	ld	s5,40(sp)
    80000f6a:	7b02                	ld	s6,32(sp)
    80000f6c:	6be2                	ld	s7,24(sp)
    80000f6e:	6c42                	ld	s8,16(sp)
    80000f70:	6ca2                	ld	s9,8(sp)
    80000f72:	6d02                	ld	s10,0(sp)
    80000f74:	8526                	mv	a0,s1
    80000f76:	64a6                	ld	s1,72(sp)
    80000f78:	6125                	addi	sp,sp,96
    80000f7a:	8082                	ret
    80000f7c:	84d6                	mv	s1,s5
    80000f7e:	bf59                	j	80000f14 <_out_rev+0x54>

Disassembly of section .text._ntoa_long:

0000000080000f80 <_ntoa_long>:
    80000f80:	715d                	addi	sp,sp,-80
    80000f82:	e486                	sd	ra,72(sp)
    80000f84:	40e6                	lw	ra,88(sp)
    80000f86:	fc26                	sd	s1,56(sp)
    80000f88:	f44e                	sd	s3,40(sp)
    80000f8a:	e0a2                	sd	s0,64(sp)
    80000f8c:	f84a                	sd	s2,48(sp)
    80000f8e:	8ec2                	mv	t4,a6
    80000f90:	49c6                	lw	s3,80(sp)
    80000f92:	8e3a                	mv	t3,a4
    80000f94:	84be                	mv	s1,a5
    80000f96:	4000f813          	andi	a6,ra,1024
    80000f9a:	e755                	bnez	a4,80001046 <_ntoa_long+0xc6>
    80000f9c:	8906                	mv	s2,ra
    80000f9e:	fef0f093          	andi	ra,ra,-17
    80000fa2:	0a081c63          	bnez	a6,8000105a <_ntoa_long+0xda>
    80000fa6:	0200f793          	andi	a5,ra,32
    80000faa:	4901                	li	s2,0
    80000fac:	06100293          	li	t0,97
    80000fb0:	e3d5                	bnez	a5,80001054 <_ntoa_long+0xd4>
    80000fb2:	4781                	li	a5,0
    80000fb4:	870a                	mv	a4,sp
    80000fb6:	43a5                	li	t2,9
    80000fb8:	32d9                	addiw	t0,t0,-10
    80000fba:	02000413          	li	s0,32
    80000fbe:	a021                	j	80000fc6 <_ntoa_long+0x46>
    80000fc0:	02878a63          	beq	a5,s0,80000ff4 <_ntoa_long+0x74>
    80000fc4:	8e1a                	mv	t3,t1
    80000fc6:	03de7f33          	remu	t5,t3,t4
    80000fca:	0fff7313          	zext.b	t1,t5
    80000fce:	03030f9b          	addiw	t6,t1,48
    80000fd2:	0062833b          	addw	t1,t0,t1
    80000fd6:	0ff37313          	zext.b	t1,t1
    80000fda:	01e3e463          	bltu	t2,t5,80000fe2 <_ntoa_long+0x62>
    80000fde:	0ffff313          	zext.b	t1,t6
    80000fe2:	0785                	addi	a5,a5,1
    80000fe4:	00f70f33          	add	t5,a4,a5
    80000fe8:	fe6f0fa3          	sb	t1,-1(t5)
    80000fec:	03de5333          	divu	t1,t3,t4
    80000ff0:	fdde78e3          	bgeu	t3,t4,80000fc0 <_ntoa_long+0x40>
    80000ff4:	0020f313          	andi	t1,ra,2
    80000ff8:	06030763          	beqz	t1,80001066 <_ntoa_long+0xe6>
    80000ffc:	10090563          	beqz	s2,80001106 <_ntoa_long+0x186>
    80001000:	0c081f63          	bnez	a6,800010de <_ntoa_long+0x15e>
    80001004:	e7e9                	bnez	a5,800010ce <_ntoa_long+0x14e>
    80001006:	47c1                	li	a5,16
    80001008:	1cfe8c63          	beq	t4,a5,800011e0 <_ntoa_long+0x260>
    8000100c:	4789                	li	a5,2
    8000100e:	20fe8463          	beq	t4,a5,80001216 <_ntoa_long+0x296>
    80001012:	03000793          	li	a5,48
    80001016:	00f10023          	sb	a5,0(sp)
    8000101a:	4785                	li	a5,1
    8000101c:	12048263          	beqz	s1,80001140 <_ntoa_long+0x1c0>
    80001020:	1000                	addi	s0,sp,32
    80001022:	00f40833          	add	a6,s0,a5
    80001026:	02d00893          	li	a7,45
    8000102a:	ff180023          	sb	a7,-32(a6)
    8000102e:	0785                	addi	a5,a5,1
    80001030:	8886                	mv	a7,ra
    80001032:	884e                	mv	a6,s3
    80001034:	e8dff0ef          	jal	ra,80000ec0 <_out_rev>
    80001038:	60a6                	ld	ra,72(sp)
    8000103a:	6406                	ld	s0,64(sp)
    8000103c:	74e2                	ld	s1,56(sp)
    8000103e:	7942                	ld	s2,48(sp)
    80001040:	79a2                	ld	s3,40(sp)
    80001042:	6161                	addi	sp,sp,80
    80001044:	8082                	ret
    80001046:	0200f793          	andi	a5,ra,32
    8000104a:	0100f913          	andi	s2,ra,16
    8000104e:	06100293          	li	t0,97
    80001052:	d3a5                	beqz	a5,80000fb2 <_ntoa_long+0x32>
    80001054:	04100293          	li	t0,65
    80001058:	bfa9                	j	80000fb2 <_ntoa_long+0x32>
    8000105a:	00297913          	andi	s2,s2,2
    8000105e:	4781                	li	a5,0
    80001060:	870a                	mv	a4,sp
    80001062:	fa091de3          	bnez	s2,8000101c <_ntoa_long+0x9c>
    80001066:	8306                	mv	t1,ra
    80001068:	0010f293          	andi	t0,ra,1
    8000106c:	08088e3b          	zext.w	t3,a7
    80001070:	0a099263          	bnez	s3,80001114 <_ntoa_long+0x194>
    80001074:	03c7f463          	bgeu	a5,t3,8000109c <_ntoa_long+0x11c>
    80001078:	02000313          	li	t1,32
    8000107c:	02678063          	beq	a5,t1,8000109c <_ntoa_long+0x11c>
    80001080:	03000f13          	li	t5,48
    80001084:	02000f93          	li	t6,32
    80001088:	a019                	j	8000108e <_ntoa_long+0x10e>
    8000108a:	01f78963          	beq	a5,t6,8000109c <_ntoa_long+0x11c>
    8000108e:	0785                	addi	a5,a5,1
    80001090:	00f70333          	add	t1,a4,a5
    80001094:	ffe30fa3          	sb	t5,-1(t1)
    80001098:	ffc7e9e3          	bltu	a5,t3,8000108a <_ntoa_long+0x10a>
    8000109c:	f60280e3          	beqz	t0,80000ffc <_ntoa_long+0x7c>
    800010a0:	08098f3b          	zext.w	t5,s3
    800010a4:	f5e7fce3          	bgeu	a5,t5,80000ffc <_ntoa_long+0x7c>
    800010a8:	02000313          	li	t1,32
    800010ac:	08678363          	beq	a5,t1,80001132 <_ntoa_long+0x1b2>
    800010b0:	03000f93          	li	t6,48
    800010b4:	02000293          	li	t0,32
    800010b8:	a019                	j	800010be <_ntoa_long+0x13e>
    800010ba:	06578c63          	beq	a5,t0,80001132 <_ntoa_long+0x1b2>
    800010be:	0785                	addi	a5,a5,1
    800010c0:	00f70333          	add	t1,a4,a5
    800010c4:	fff30fa3          	sb	t6,-1(t1)
    800010c8:	ffe799e3          	bne	a5,t5,800010ba <_ntoa_long+0x13a>
    800010cc:	bf05                	j	80000ffc <_ntoa_long+0x7c>
    800010ce:	08088e3b          	zext.w	t3,a7
    800010d2:	0cfe0663          	beq	t3,a5,8000119e <_ntoa_long+0x21e>
    800010d6:	0809883b          	zext.w	a6,s3
    800010da:	0cf80263          	beq	a6,a5,8000119e <_ntoa_long+0x21e>
    800010de:	4841                	li	a6,16
    800010e0:	0d0e8f63          	beq	t4,a6,800011be <_ntoa_long+0x23e>
    800010e4:	4809                	li	a6,2
    800010e6:	0b0e8263          	beq	t4,a6,8000118a <_ntoa_long+0x20a>
    800010ea:	02000813          	li	a6,32
    800010ee:	f50781e3          	beq	a5,a6,80001030 <_ntoa_long+0xb0>
    800010f2:	883e                	mv	a6,a5
    800010f4:	101c                	addi	a5,sp,32
    800010f6:	010788b3          	add	a7,a5,a6
    800010fa:	00180793          	addi	a5,a6,1
    800010fe:	03000813          	li	a6,48
    80001102:	ff088023          	sb	a6,-32(a7)
    80001106:	02000813          	li	a6,32
    8000110a:	f10799e3          	bne	a5,a6,8000101c <_ntoa_long+0x9c>
    8000110e:	02000793          	li	a5,32
    80001112:	bf39                	j	80001030 <_ntoa_long+0xb0>
    80001114:	04028763          	beqz	t0,80001162 <_ntoa_long+0x1e2>
    80001118:	e0c9                	bnez	s1,8000119a <_ntoa_long+0x21a>
    8000111a:	00c37313          	andi	t1,t1,12
    8000111e:	06031e63          	bnez	t1,8000119a <_ntoa_long+0x21a>
    80001122:	f7c7ffe3          	bgeu	a5,t3,800010a0 <_ntoa_long+0x120>
    80001126:	02000313          	li	t1,32
    8000112a:	f4679be3          	bne	a5,t1,80001080 <_ntoa_long+0x100>
    8000112e:	ed37f7e3          	bgeu	a5,s3,80000ffc <_ntoa_long+0x7c>
    80001132:	fc090ee3          	beqz	s2,8000110e <_ntoa_long+0x18e>
    80001136:	02000793          	li	a5,32
    8000113a:	f8080ce3          	beqz	a6,800010d2 <_ntoa_long+0x152>
    8000113e:	b745                	j	800010de <_ntoa_long+0x15e>
    80001140:	0040f813          	andi	a6,ra,4
    80001144:	02081a63          	bnez	a6,80001178 <_ntoa_long+0x1f8>
    80001148:	0080f813          	andi	a6,ra,8
    8000114c:	ee0802e3          	beqz	a6,80001030 <_ntoa_long+0xb0>
    80001150:	1000                	addi	s0,sp,32
    80001152:	00f40833          	add	a6,s0,a5
    80001156:	02000893          	li	a7,32
    8000115a:	ff180023          	sb	a7,-32(a6)
    8000115e:	0785                	addi	a5,a5,1
    80001160:	bdc1                	j	80001030 <_ntoa_long+0xb0>
    80001162:	e9c7fde3          	bgeu	a5,t3,80000ffc <_ntoa_long+0x7c>
    80001166:	02000313          	li	t1,32
    8000116a:	f0679be3          	bne	a5,t1,80001080 <_ntoa_long+0x100>
    8000116e:	e80919e3          	bnez	s2,80001000 <_ntoa_long+0x80>
    80001172:	02000793          	li	a5,32
    80001176:	bd6d                	j	80001030 <_ntoa_long+0xb0>
    80001178:	1000                	addi	s0,sp,32
    8000117a:	00f40833          	add	a6,s0,a5
    8000117e:	02b00893          	li	a7,43
    80001182:	ff180023          	sb	a7,-32(a6)
    80001186:	0785                	addi	a5,a5,1
    80001188:	b565                	j	80001030 <_ntoa_long+0xb0>
    8000118a:	02000813          	li	a6,32
    8000118e:	eb0781e3          	beq	a5,a6,80001030 <_ntoa_long+0xb0>
    80001192:	00f70833          	add	a6,a4,a5
    80001196:	0785                	addi	a5,a5,1
    80001198:	a831                	j	800011b4 <_ntoa_long+0x234>
    8000119a:	39fd                	addiw	s3,s3,-1
    8000119c:	b759                	j	80001122 <_ntoa_long+0x1a2>
    8000119e:	fff78813          	addi	a6,a5,-1
    800011a2:	e60802e3          	beqz	a6,80001006 <_ntoa_long+0x86>
    800011a6:	48c1                	li	a7,16
    800011a8:	071e8d63          	beq	t4,a7,80001222 <_ntoa_long+0x2a2>
    800011ac:	4889                	li	a7,2
    800011ae:	f51e93e3          	bne	t4,a7,800010f4 <_ntoa_long+0x174>
    800011b2:	983a                	add	a6,a6,a4
    800011b4:	06200893          	li	a7,98
    800011b8:	01180023          	sb	a7,0(a6)
    800011bc:	b73d                	j	800010ea <_ntoa_long+0x16a>
    800011be:	0200f813          	andi	a6,ra,32
    800011c2:	02080863          	beqz	a6,800011f2 <_ntoa_long+0x272>
    800011c6:	02000813          	li	a6,32
    800011ca:	e70783e3          	beq	a5,a6,80001030 <_ntoa_long+0xb0>
    800011ce:	1000                	addi	s0,sp,32
    800011d0:	00f40833          	add	a6,s0,a5
    800011d4:	05800893          	li	a7,88
    800011d8:	0785                	addi	a5,a5,1
    800011da:	ff180023          	sb	a7,-32(a6)
    800011de:	b731                	j	800010ea <_ntoa_long+0x16a>
    800011e0:	0200f793          	andi	a5,ra,32
    800011e4:	e39d                	bnez	a5,8000120a <_ntoa_long+0x28a>
    800011e6:	07800793          	li	a5,120
    800011ea:	00f10023          	sb	a5,0(sp)
    800011ee:	4805                	li	a6,1
    800011f0:	b711                	j	800010f4 <_ntoa_long+0x174>
    800011f2:	02000813          	li	a6,32
    800011f6:	e3078de3          	beq	a5,a6,80001030 <_ntoa_long+0xb0>
    800011fa:	00f708b3          	add	a7,a4,a5
    800011fe:	0785                	addi	a5,a5,1
    80001200:	07800813          	li	a6,120
    80001204:	01088023          	sb	a6,0(a7)
    80001208:	b5cd                	j	800010ea <_ntoa_long+0x16a>
    8000120a:	05800793          	li	a5,88
    8000120e:	00f10023          	sb	a5,0(sp)
    80001212:	4805                	li	a6,1
    80001214:	b5c5                	j	800010f4 <_ntoa_long+0x174>
    80001216:	06200793          	li	a5,98
    8000121a:	00f10023          	sb	a5,0(sp)
    8000121e:	4805                	li	a6,1
    80001220:	bdd1                	j	800010f4 <_ntoa_long+0x174>
    80001222:	0200f893          	andi	a7,ra,32
    80001226:	17f9                	addi	a5,a5,-2
    80001228:	fa0893e3          	bnez	a7,800011ce <_ntoa_long+0x24e>
    8000122c:	00f708b3          	add	a7,a4,a5
    80001230:	87c2                	mv	a5,a6
    80001232:	b7f9                	j	80001200 <_ntoa_long+0x280>

Disassembly of section .text._etoa:

0000000080001234 <_etoa>:
    80001234:	f20707d3          	fmv.d.x	fa5,a4
    80001238:	7159                	addi	sp,sp,-112
    8000123a:	f0a2                	sd	s0,96(sp)
    8000123c:	a2f7a753          	feq.d	a4,fa5,fa5
    80001240:	eca6                	sd	s1,88(sp)
    80001242:	e8ca                	sd	s2,80(sp)
    80001244:	e4ce                	sd	s3,72(sp)
    80001246:	e0d2                	sd	s4,64(sp)
    80001248:	fc56                	sd	s5,56(sp)
    8000124a:	f486                	sd	ra,104(sp)
    8000124c:	f85a                	sd	s6,48(sp)
    8000124e:	f45e                	sd	s7,40(sp)
    80001250:	f062                	sd	s8,32(sp)
    80001252:	ec66                	sd	s9,24(sp)
    80001254:	89aa                	mv	s3,a0
    80001256:	8a2e                	mv	s4,a1
    80001258:	8432                	mv	s0,a2
    8000125a:	8ab6                	mv	s5,a3
    8000125c:	8942                	mv	s2,a6
    8000125e:	84c6                	mv	s1,a7
    80001260:	26070463          	beqz	a4,800014c8 <_etoa+0x294>
    80001264:	00001717          	auipc	a4,0x1
    80001268:	71473707          	fld	fa4,1812(a4) # 80002978 <pow10.0+0x68>
    8000126c:	a2f71753          	flt.d	a4,fa4,fa5
    80001270:	24071c63          	bnez	a4,800014c8 <_etoa+0x294>
    80001274:	00001717          	auipc	a4,0x1
    80001278:	70c73707          	fld	fa4,1804(a4) # 80002980 <pow10.0+0x70>
    8000127c:	a2e79753          	flt.d	a4,fa5,fa4
    80001280:	24071463          	bnez	a4,800014c8 <_etoa+0x294>
    80001284:	f2000753          	fmv.d.x	fa4,zero
    80001288:	a2e79753          	flt.d	a4,fa5,fa4
    8000128c:	28071263          	bnez	a4,80001510 <_etoa+0x2dc>
    80001290:	e2078753          	fmv.x.d	a4,fa5
    80001294:	4004f613          	andi	a2,s1,1024
    80001298:	e211                	bnez	a2,8000129c <_etoa+0x68>
    8000129a:	4799                	li	a5,6
    8000129c:	03475693          	srli	a3,a4,0x34
    800012a0:	7ff6f693          	andi	a3,a3,2047
    800012a4:	00001597          	auipc	a1,0x1
    800012a8:	6e45b687          	fld	fa3,1764(a1) # 80002988 <pow10.0+0x78>
    800012ac:	00001597          	auipc	a1,0x1
    800012b0:	6e45b707          	fld	fa4,1764(a1) # 80002990 <pow10.0+0x80>
    800012b4:	c016869b          	addiw	a3,a3,-1023
    800012b8:	d20685d3          	fcvt.d.w	fa1,a3
    800012bc:	3ff00593          	li	a1,1023
    800012c0:	00c71693          	slli	a3,a4,0xc
    800012c4:	15d2                	slli	a1,a1,0x34
    800012c6:	82b1                	srli	a3,a3,0xc
    800012c8:	8ecd                	or	a3,a3,a1
    800012ca:	72d5f5c3          	fmadd.d	fa1,fa1,fa3,fa4
    800012ce:	f2068753          	fmv.d.x	fa4,a3
    800012d2:	00001597          	auipc	a1,0x1
    800012d6:	6c65b607          	fld	fa2,1734(a1) # 80002998 <pow10.0+0x88>
    800012da:	00001697          	auipc	a3,0x1
    800012de:	6ce6b507          	fld	fa0,1742(a3) # 800029a8 <pow10.0+0x98>
    800012e2:	0ac77653          	fsub.d	fa2,fa4,fa2
    800012e6:	00001697          	auipc	a3,0x1
    800012ea:	6ba6b707          	fld	fa4,1722(a3) # 800029a0 <pow10.0+0x90>
    800012ee:	00001697          	auipc	a3,0x1
    800012f2:	6c26b287          	fld	ft5,1730(a3) # 800029b0 <pow10.0+0xa0>
    800012f6:	00001697          	auipc	a3,0x1
    800012fa:	6c26b207          	fld	ft4,1730(a3) # 800029b8 <pow10.0+0xa8>
    800012fe:	00001697          	auipc	a3,0x1
    80001302:	6c26b187          	fld	ft3,1730(a3) # 800029c0 <pow10.0+0xb0>
    80001306:	00001697          	auipc	a3,0x1
    8000130a:	6c26b687          	fld	fa3,1730(a3) # 800029c8 <pow10.0+0xb8>
    8000130e:	00001697          	auipc	a3,0x1
    80001312:	6c26b007          	fld	ft0,1730(a3) # 800029d0 <pow10.0+0xc0>
    80001316:	5ae67643          	fmadd.d	fa2,fa2,fa4,fa1
    8000131a:	00001697          	auipc	a3,0x1
    8000131e:	6be6b107          	fld	ft2,1726(a3) # 800029d8 <pow10.0+0xc8>
    80001322:	00001697          	auipc	a3,0x1
    80001326:	6be6b587          	fld	fa1,1726(a3) # 800029e0 <pow10.0+0xd0>
    8000132a:	00001697          	auipc	a3,0x1
    8000132e:	6be6b087          	fld	ft1,1726(a3) # 800029e8 <pow10.0+0xd8>
    80001332:	c20615d3          	fcvt.w.d	a1,fa2,rtz
    80001336:	d2058753          	fcvt.d.w	fa4,a1
    8000133a:	00058c1b          	sext.w	s8,a1
    8000133e:	2aa77543          	fmadd.d	fa0,fa4,fa0,ft5
    80001342:	c20516d3          	fcvt.w.d	a3,fa0,rtz
    80001346:	d2068653          	fcvt.d.w	fa2,a3
    8000134a:	3ff6869b          	addiw	a3,a3,1023
    8000134e:	16d2                	slli	a3,a3,0x34
    80001350:	12467653          	fmul.d	fa2,fa2,ft4
    80001354:	62377747          	fmsub.d	fa4,fa4,ft3,fa2
    80001358:	12e77653          	fmul.d	fa2,fa4,fa4
    8000135c:	0ae5f5d3          	fsub.d	fa1,fa1,fa4
    80001360:	02e77753          	fadd.d	fa4,fa4,fa4
    80001364:	1ad676d3          	fdiv.d	fa3,fa2,fa3
    80001368:	0206f6d3          	fadd.d	fa3,fa3,ft0
    8000136c:	1ad676d3          	fdiv.d	fa3,fa2,fa3
    80001370:	0226f6d3          	fadd.d	fa3,fa3,ft2
    80001374:	1ad67653          	fdiv.d	fa2,fa2,fa3
    80001378:	f20686d3          	fmv.d.x	fa3,a3
    8000137c:	02b67653          	fadd.d	fa2,fa2,fa1
    80001380:	1ac77753          	fdiv.d	fa4,fa4,fa2
    80001384:	02177753          	fadd.d	fa4,fa4,ft1
    80001388:	12d77753          	fmul.d	fa4,fa4,fa3
    8000138c:	f20706d3          	fmv.d.x	fa3,a4
    80001390:	a2e696d3          	flt.d	a3,fa3,fa4
    80001394:	e2070353          	fmv.x.d	t1,fa4
    80001398:	c699                	beqz	a3,800013a6 <_etoa+0x172>
    8000139a:	1a077753          	fdiv.d	fa4,fa4,ft0
    8000139e:	fff58c1b          	addiw	s8,a1,-1
    800013a2:	e2070353          	fmv.x.d	t1,fa4
    800013a6:	0c600693          	li	a3,198
    800013aa:	063c0c9b          	addiw	s9,s8,99
    800013ae:	0196bcb3          	sltu	s9,a3,s9
    800013b2:	0c91                	addi	s9,s9,4
    800013b4:	48b4d693          	bexti	a3,s1,0xb
    800013b8:	ce9d                	beqz	a3,800013f6 <_etoa+0x1c2>
    800013ba:	f20706d3          	fmv.d.x	fa3,a4
    800013be:	00001697          	auipc	a3,0x1
    800013c2:	6326b707          	fld	fa4,1586(a3) # 800029f0 <pow10.0+0xe0>
    800013c6:	a2d706d3          	fle.d	a3,fa4,fa3
    800013ca:	12068d63          	beqz	a3,80001504 <_etoa+0x2d0>
    800013ce:	00001697          	auipc	a3,0x1
    800013d2:	62a6b707          	fld	fa4,1578(a3) # 800029f8 <pow10.0+0xe8>
    800013d6:	a2e696d3          	flt.d	a3,fa3,fa4
    800013da:	12068563          	beqz	a3,80001504 <_etoa+0x2d0>
    800013de:	0007869b          	sext.w	a3,a5
    800013e2:	4781                	li	a5,0
    800013e4:	00dc5563          	bge	s8,a3,800013ee <_etoa+0x1ba>
    800013e8:	418687bb          	subw	a5,a3,s8
    800013ec:	37fd                	addiw	a5,a5,-1
    800013ee:	4004e493          	ori	s1,s1,1024
    800013f2:	4c81                	li	s9,0
    800013f4:	4c01                	li	s8,0
    800013f6:	4801                	li	a6,0
    800013f8:	012cf463          	bgeu	s9,s2,80001400 <_etoa+0x1cc>
    800013fc:	4199083b          	subw	a6,s2,s9
    80001400:	0024fb93          	andi	s7,s1,2
    80001404:	000b8863          	beqz	s7,80001414 <_etoa+0x1e0>
    80001408:	001cb693          	seqz	a3,s9
    8000140c:	40d006b3          	neg	a3,a3
    80001410:	00d87833          	and	a6,a6,a3
    80001414:	0c0c1f63          	bnez	s8,800014f2 <_etoa+0x2be>
    80001418:	f2000753          	fmv.d.x	fa4,zero
    8000141c:	a2e796d3          	flt.d	a3,fa5,fa4
    80001420:	c699                	beqz	a3,8000142e <_etoa+0x1fa>
    80001422:	f20707d3          	fmv.d.x	fa5,a4
    80001426:	22f797d3          	fneg.d	fa5,fa5
    8000142a:	e2078753          	fmv.x.d	a4,fa5
    8000142e:	86d6                	mv	a3,s5
    80001430:	8622                	mv	a2,s0
    80001432:	85d2                	mv	a1,s4
    80001434:	854e                	mv	a0,s3
    80001436:	48b49893          	bclri	a7,s1,0xb
    8000143a:	0e0000ef          	jal	ra,8000151a <_ftoa>
    8000143e:	8b2a                	mv	s6,a0
    80001440:	060c8663          	beqz	s9,800014ac <_etoa+0x278>
    80001444:	0204f493          	andi	s1,s1,32
    80001448:	04500513          	li	a0,69
    8000144c:	e099                	bnez	s1,80001452 <_etoa+0x21e>
    8000144e:	06500513          	li	a0,101
    80001452:	865a                	mv	a2,s6
    80001454:	86d6                	mv	a3,s5
    80001456:	85d2                	mv	a1,s4
    80001458:	9982                	jalr	s3
    8000145a:	41fc571b          	sraiw	a4,s8,0x1f
    8000145e:	00ec46b3          	xor	a3,s8,a4
    80001462:	fffc879b          	addiw	a5,s9,-1
    80001466:	4595                	li	a1,5
    80001468:	001b0613          	addi	a2,s6,1
    8000146c:	e42e                	sd	a1,8(sp)
    8000146e:	e03e                	sd	a5,0(sp)
    80001470:	40e6873b          	subw	a4,a3,a4
    80001474:	4881                	li	a7,0
    80001476:	4829                	li	a6,10
    80001478:	01fc579b          	srliw	a5,s8,0x1f
    8000147c:	86d6                	mv	a3,s5
    8000147e:	85d2                	mv	a1,s4
    80001480:	854e                	mv	a0,s3
    80001482:	affff0ef          	jal	ra,80000f80 <_ntoa_long>
    80001486:	8b2a                	mv	s6,a0
    80001488:	020b8263          	beqz	s7,800014ac <_etoa+0x278>
    8000148c:	40850433          	sub	s0,a0,s0
    80001490:	0809093b          	zext.w	s2,s2
    80001494:	01247c63          	bgeu	s0,s2,800014ac <_etoa+0x278>
    80001498:	865a                	mv	a2,s6
    8000149a:	0405                	addi	s0,s0,1
    8000149c:	86d6                	mv	a3,s5
    8000149e:	85d2                	mv	a1,s4
    800014a0:	02000513          	li	a0,32
    800014a4:	0b05                	addi	s6,s6,1
    800014a6:	9982                	jalr	s3
    800014a8:	ff2468e3          	bltu	s0,s2,80001498 <_etoa+0x264>
    800014ac:	70a6                	ld	ra,104(sp)
    800014ae:	7406                	ld	s0,96(sp)
    800014b0:	64e6                	ld	s1,88(sp)
    800014b2:	6946                	ld	s2,80(sp)
    800014b4:	69a6                	ld	s3,72(sp)
    800014b6:	6a06                	ld	s4,64(sp)
    800014b8:	7ae2                	ld	s5,56(sp)
    800014ba:	7ba2                	ld	s7,40(sp)
    800014bc:	7c02                	ld	s8,32(sp)
    800014be:	6ce2                	ld	s9,24(sp)
    800014c0:	855a                	mv	a0,s6
    800014c2:	7b42                	ld	s6,48(sp)
    800014c4:	6165                	addi	sp,sp,112
    800014c6:	8082                	ret
    800014c8:	8622                	mv	a2,s0
    800014ca:	7406                	ld	s0,96(sp)
    800014cc:	70a6                	ld	ra,104(sp)
    800014ce:	7b42                	ld	s6,48(sp)
    800014d0:	7ba2                	ld	s7,40(sp)
    800014d2:	7c02                	ld	s8,32(sp)
    800014d4:	6ce2                	ld	s9,24(sp)
    800014d6:	88a6                	mv	a7,s1
    800014d8:	884a                	mv	a6,s2
    800014da:	64e6                	ld	s1,88(sp)
    800014dc:	6946                	ld	s2,80(sp)
    800014de:	86d6                	mv	a3,s5
    800014e0:	85d2                	mv	a1,s4
    800014e2:	7ae2                	ld	s5,56(sp)
    800014e4:	6a06                	ld	s4,64(sp)
    800014e6:	854e                	mv	a0,s3
    800014e8:	e2078753          	fmv.x.d	a4,fa5
    800014ec:	69a6                	ld	s3,72(sp)
    800014ee:	6165                	addi	sp,sp,112
    800014f0:	a02d                	j	8000151a <_ftoa>
    800014f2:	f2070753          	fmv.d.x	fa4,a4
    800014f6:	f20306d3          	fmv.d.x	fa3,t1
    800014fa:	1ad77753          	fdiv.d	fa4,fa4,fa3
    800014fe:	e2070753          	fmv.x.d	a4,fa4
    80001502:	bf19                	j	80001418 <_etoa+0x1e4>
    80001504:	ee0789e3          	beqz	a5,800013f6 <_etoa+0x1c2>
    80001508:	ee0607e3          	beqz	a2,800013f6 <_etoa+0x1c2>
    8000150c:	37fd                	addiw	a5,a5,-1
    8000150e:	b5e5                	j	800013f6 <_etoa+0x1c2>
    80001510:	22f79753          	fneg.d	fa4,fa5
    80001514:	e2070753          	fmv.x.d	a4,fa4
    80001518:	bbb5                	j	80001294 <_etoa+0x60>

Disassembly of section .text._ftoa:

000000008000151a <_ftoa>:
    8000151a:	f20707d3          	fmv.d.x	fa5,a4
    8000151e:	a2f7a753          	feq.d	a4,fa5,fa5
    80001522:	18070163          	beqz	a4,800016a4 <_ftoa+0x18a>
    80001526:	00001717          	auipc	a4,0x1
    8000152a:	45a73707          	fld	fa4,1114(a4) # 80002980 <pow10.0+0x70>
    8000152e:	a2e79753          	flt.d	a4,fa5,fa4
    80001532:	22071863          	bnez	a4,80001762 <_ftoa+0x248>
    80001536:	00001717          	auipc	a4,0x1
    8000153a:	44273707          	fld	fa4,1090(a4) # 80002978 <pow10.0+0x68>
    8000153e:	a2f71753          	flt.d	a4,fa4,fa5
    80001542:	7139                	addi	sp,sp,-64
    80001544:	f822                	sd	s0,48(sp)
    80001546:	f426                	sd	s1,40(sp)
    80001548:	fc06                	sd	ra,56(sp)
    8000154a:	8faa                	mv	t6,a0
    8000154c:	82ae                	mv	t0,a1
    8000154e:	83b2                	mv	t2,a2
    80001550:	8436                	mv	s0,a3
    80001552:	84c2                	mv	s1,a6
    80001554:	8f46                	mv	t5,a7
    80001556:	12071463          	bnez	a4,8000167e <_ftoa+0x164>
    8000155a:	00001717          	auipc	a4,0x1
    8000155e:	4a673707          	fld	fa4,1190(a4) # 80002a00 <pow10.0+0xf0>
    80001562:	a2f71753          	flt.d	a4,fa4,fa5
    80001566:	1e071163          	bnez	a4,80001748 <_ftoa+0x22e>
    8000156a:	00001717          	auipc	a4,0x1
    8000156e:	49e73707          	fld	fa4,1182(a4) # 80002a08 <pow10.0+0xf8>
    80001572:	a2e79753          	flt.d	a4,fa5,fa4
    80001576:	1c071963          	bnez	a4,80001748 <_ftoa+0x22e>
    8000157a:	f2000753          	fmv.d.x	fa4,zero
    8000157e:	4501                	li	a0,0
    80001580:	a2e79753          	flt.d	a4,fa5,fa4
    80001584:	1a071e63          	bnez	a4,80001740 <_ftoa+0x226>
    80001588:	400f7713          	andi	a4,t5,1024
    8000158c:	e311                	bnez	a4,80001590 <_ftoa+0x76>
    8000158e:	4799                	li	a5,6
    80001590:	4301                	li	t1,0
    80001592:	46a5                	li	a3,9
    80001594:	03000593          	li	a1,48
    80001598:	02000613          	li	a2,32
    8000159c:	00f6fa63          	bgeu	a3,a5,800015b0 <_ftoa+0x96>
    800015a0:	0305                	addi	t1,t1,1
    800015a2:	00610733          	add	a4,sp,t1
    800015a6:	feb70fa3          	sb	a1,-1(a4)
    800015aa:	37fd                	addiw	a5,a5,-1
    800015ac:	fec318e3          	bne	t1,a2,8000159c <_ftoa+0x82>
    800015b0:	c20796d3          	fcvt.w.d	a3,fa5,rtz
    800015b4:	00001717          	auipc	a4,0x1
    800015b8:	35c70713          	addi	a4,a4,860 # 80002910 <pow10.0>
    800015bc:	20e7e73b          	sh3add.uw	a4,a5,a4
    800015c0:	d2068753          	fcvt.d.w	fa4,a3
    800015c4:	2310                	fld	fa2,0(a4)
    800015c6:	00001717          	auipc	a4,0x1
    800015ca:	3ea73687          	fld	fa3,1002(a4) # 800029b0 <pow10.0+0xa0>
    800015ce:	0ae7f753          	fsub.d	fa4,fa5,fa4
    800015d2:	0006871b          	sext.w	a4,a3
    800015d6:	12c77753          	fmul.d	fa4,fa4,fa2
    800015da:	c2371ed3          	fcvt.lu.d	t4,fa4,rtz
    800015de:	d23ef5d3          	fcvt.d.lu	fa1,t4
    800015e2:	0ab77753          	fsub.d	fa4,fa4,fa1
    800015e6:	a2e69653          	flt.d	a2,fa3,fa4
    800015ea:	c279                	beqz	a2,800016b0 <_ftoa+0x196>
    800015ec:	0e85                	addi	t4,t4,1
    800015ee:	d23ef753          	fcvt.d.lu	fa4,t4
    800015f2:	a2e60653          	fle.d	a2,fa2,fa4
    800015f6:	c601                	beqz	a2,800015fe <_ftoa+0xe4>
    800015f8:	0016871b          	addiw	a4,a3,1
    800015fc:	4e81                	li	t4,0
    800015fe:	e3e1                	bnez	a5,800016be <_ftoa+0x1a4>
    80001600:	d2070753          	fcvt.d.w	fa4,a4
    80001604:	0ae7f7d3          	fsub.d	fa5,fa5,fa4
    80001608:	a2d797d3          	flt.d	a5,fa5,fa3
    8000160c:	c781                	beqz	a5,80001614 <_ftoa+0xfa>
    8000160e:	a2f697d3          	flt.d	a5,fa3,fa5
    80001612:	c789                	beqz	a5,8000161c <_ftoa+0x102>
    80001614:	00177793          	andi	a5,a4,1
    80001618:	c391                	beqz	a5,8000161c <_ftoa+0x102>
    8000161a:	2705                	addiw	a4,a4,1
    8000161c:	02000693          	li	a3,32
    80001620:	48a9                	li	a7,10
    80001622:	0cd30a63          	beq	t1,a3,800016f6 <_ftoa+0x1dc>
    80001626:	031767bb          	remw	a5,a4,a7
    8000162a:	0305                	addi	t1,t1,1
    8000162c:	00610e33          	add	t3,sp,t1
    80001630:	0317473b          	divw	a4,a4,a7
    80001634:	0307879b          	addiw	a5,a5,48
    80001638:	fefe0fa3          	sb	a5,-1(t3)
    8000163c:	f37d                	bnez	a4,80001622 <_ftoa+0x108>
    8000163e:	003f7793          	andi	a5,t5,3
    80001642:	4705                	li	a4,1
    80001644:	0ae78e63          	beq	a5,a4,80001700 <_ftoa+0x1e6>
    80001648:	47fd                	li	a5,31
    8000164a:	0067eb63          	bltu	a5,t1,80001660 <_ftoa+0x146>
    8000164e:	12050163          	beqz	a0,80001770 <_ftoa+0x256>
    80001652:	101c                	addi	a5,sp,32
    80001654:	979a                	add	a5,a5,t1
    80001656:	02d00713          	li	a4,45
    8000165a:	fee78023          	sb	a4,-32(a5)
    8000165e:	0305                	addi	t1,t1,1
    80001660:	8826                	mv	a6,s1
    80001662:	870a                	mv	a4,sp
    80001664:	86a2                	mv	a3,s0
    80001666:	88fa                	mv	a7,t5
    80001668:	879a                	mv	a5,t1
    8000166a:	861e                	mv	a2,t2
    8000166c:	8596                	mv	a1,t0
    8000166e:	857e                	mv	a0,t6
    80001670:	851ff0ef          	jal	ra,80000ec0 <_out_rev>
    80001674:	70e2                	ld	ra,56(sp)
    80001676:	7442                	ld	s0,48(sp)
    80001678:	74a2                	ld	s1,40(sp)
    8000167a:	6121                	addi	sp,sp,64
    8000167c:	8082                	ret
    8000167e:	0048f793          	andi	a5,a7,4
    80001682:	ebcd                	bnez	a5,80001734 <_ftoa+0x21a>
    80001684:	00001717          	auipc	a4,0x1
    80001688:	08c70713          	addi	a4,a4,140 # 80002710 <__am_mainargs+0x3>
    8000168c:	478d                	li	a5,3
    8000168e:	86a2                	mv	a3,s0
    80001690:	7442                	ld	s0,48(sp)
    80001692:	70e2                	ld	ra,56(sp)
    80001694:	8826                	mv	a6,s1
    80001696:	74a2                	ld	s1,40(sp)
    80001698:	88fa                	mv	a7,t5
    8000169a:	861e                	mv	a2,t2
    8000169c:	8596                	mv	a1,t0
    8000169e:	857e                	mv	a0,t6
    800016a0:	6121                	addi	sp,sp,64
    800016a2:	b839                	j	80000ec0 <_out_rev>
    800016a4:	478d                	li	a5,3
    800016a6:	00001717          	auipc	a4,0x1
    800016aa:	07a70713          	addi	a4,a4,122 # 80002720 <__am_mainargs+0x13>
    800016ae:	b809                	j	80000ec0 <_out_rev>
    800016b0:	a2d716d3          	flt.d	a3,fa4,fa3
    800016b4:	f6a9                	bnez	a3,800015fe <_ftoa+0xe4>
    800016b6:	100e9b63          	bnez	t4,800017cc <_ftoa+0x2b2>
    800016ba:	0e85                	addi	t4,t4,1
    800016bc:	d3b1                	beqz	a5,80001600 <_ftoa+0xe6>
    800016be:	fe07889b          	addiw	a7,a5,-32
    800016c2:	006888bb          	addw	a7,a7,t1
    800016c6:	4629                	li	a2,10
    800016c8:	40a5                	li	ra,9
    800016ca:	a005                	j	800016ea <_ftoa+0x1d0>
    800016cc:	02cef6b3          	remu	a3,t4,a2
    800016d0:	fff7881b          	addiw	a6,a5,-1
    800016d4:	0306869b          	addiw	a3,a3,48
    800016d8:	fed58fa3          	sb	a3,-1(a1)
    800016dc:	02ced6b3          	divu	a3,t4,a2
    800016e0:	0bd0f763          	bgeu	ra,t4,8000178e <_ftoa+0x274>
    800016e4:	87c2                	mv	a5,a6
    800016e6:	8372                	mv	t1,t3
    800016e8:	8eb6                	mv	t4,a3
    800016ea:	00130e13          	addi	t3,t1,1
    800016ee:	01c105b3          	add	a1,sp,t3
    800016f2:	fd179de3          	bne	a5,a7,800016cc <_ftoa+0x1b2>
    800016f6:	003f7793          	andi	a5,t5,3
    800016fa:	4705                	li	a4,1
    800016fc:	f6e792e3          	bne	a5,a4,80001660 <_ftoa+0x146>
    80001700:	d4a1                	beqz	s1,80001648 <_ftoa+0x12e>
    80001702:	e17d                	bnez	a0,800017e8 <_ftoa+0x2ce>
    80001704:	00cf7793          	andi	a5,t5,12
    80001708:	e3e5                	bnez	a5,800017e8 <_ftoa+0x2ce>
    8000170a:	0804873b          	zext.w	a4,s1
    8000170e:	f2e37de3          	bgeu	t1,a4,80001648 <_ftoa+0x12e>
    80001712:	47fd                	li	a5,31
    80001714:	03000613          	li	a2,48
    80001718:	02000693          	li	a3,32
    8000171c:	f467e2e3          	bltu	a5,t1,80001660 <_ftoa+0x146>
    80001720:	0305                	addi	t1,t1,1
    80001722:	006107b3          	add	a5,sp,t1
    80001726:	fec78fa3          	sb	a2,-1(a5)
    8000172a:	f0e30fe3          	beq	t1,a4,80001648 <_ftoa+0x12e>
    8000172e:	fed319e3          	bne	t1,a3,80001720 <_ftoa+0x206>
    80001732:	b73d                	j	80001660 <_ftoa+0x146>
    80001734:	00001717          	auipc	a4,0x1
    80001738:	fe470713          	addi	a4,a4,-28 # 80002718 <__am_mainargs+0xb>
    8000173c:	4791                	li	a5,4
    8000173e:	bf81                	j	8000168e <_ftoa+0x174>
    80001740:	0af777d3          	fsub.d	fa5,fa4,fa5
    80001744:	4505                	li	a0,1
    80001746:	b589                	j	80001588 <_ftoa+0x6e>
    80001748:	86a2                	mv	a3,s0
    8000174a:	7442                	ld	s0,48(sp)
    8000174c:	70e2                	ld	ra,56(sp)
    8000174e:	8826                	mv	a6,s1
    80001750:	e2078753          	fmv.x.d	a4,fa5
    80001754:	74a2                	ld	s1,40(sp)
    80001756:	88fa                	mv	a7,t5
    80001758:	861e                	mv	a2,t2
    8000175a:	8596                	mv	a1,t0
    8000175c:	857e                	mv	a0,t6
    8000175e:	6121                	addi	sp,sp,64
    80001760:	bcd1                	j	80001234 <_etoa>
    80001762:	4791                	li	a5,4
    80001764:	00001717          	auipc	a4,0x1
    80001768:	fc470713          	addi	a4,a4,-60 # 80002728 <__am_mainargs+0x1b>
    8000176c:	f54ff06f          	j	80000ec0 <_out_rev>
    80001770:	004f7793          	andi	a5,t5,4
    80001774:	e3b5                	bnez	a5,800017d8 <_ftoa+0x2be>
    80001776:	008f7793          	andi	a5,t5,8
    8000177a:	ee0783e3          	beqz	a5,80001660 <_ftoa+0x146>
    8000177e:	101c                	addi	a5,sp,32
    80001780:	979a                	add	a5,a5,t1
    80001782:	02000713          	li	a4,32
    80001786:	fee78023          	sb	a4,-32(a5)
    8000178a:	0305                	addi	t1,t1,1
    8000178c:	bdd1                	j	80001660 <_ftoa+0x146>
    8000178e:	02000693          	li	a3,32
    80001792:	04de0f63          	beq	t3,a3,800017f0 <_ftoa+0x2d6>
    80001796:	37f9                	addiw	a5,a5,-2
    80001798:	04080a63          	beqz	a6,800017ec <_ftoa+0x2d2>
    8000179c:	0309                	addi	t1,t1,2
    8000179e:	03000613          	li	a2,48
    800017a2:	02000693          	li	a3,32
    800017a6:	0867833b          	add.uw	t1,a5,t1
    800017aa:	0e05                	addi	t3,t3,1
    800017ac:	01c107b3          	add	a5,sp,t3
    800017b0:	fec78fa3          	sb	a2,-1(a5)
    800017b4:	02de0e63          	beq	t3,a3,800017f0 <_ftoa+0x2d6>
    800017b8:	fe6e19e3          	bne	t3,t1,800017aa <_ftoa+0x290>
    800017bc:	101c                	addi	a5,sp,32
    800017be:	979a                	add	a5,a5,t1
    800017c0:	02e00693          	li	a3,46
    800017c4:	0305                	addi	t1,t1,1
    800017c6:	fed78023          	sb	a3,-32(a5)
    800017ca:	bd89                	j	8000161c <_ftoa+0x102>
    800017cc:	001ef693          	andi	a3,t4,1
    800017d0:	e20687e3          	beqz	a3,800015fe <_ftoa+0xe4>
    800017d4:	0e85                	addi	t4,t4,1
    800017d6:	b5dd                	j	800016bc <_ftoa+0x1a2>
    800017d8:	101c                	addi	a5,sp,32
    800017da:	979a                	add	a5,a5,t1
    800017dc:	02b00713          	li	a4,43
    800017e0:	fee78023          	sb	a4,-32(a5)
    800017e4:	0305                	addi	t1,t1,1
    800017e6:	bdad                	j	80001660 <_ftoa+0x146>
    800017e8:	34fd                	addiw	s1,s1,-1
    800017ea:	b705                	j	8000170a <_ftoa+0x1f0>
    800017ec:	8372                	mv	t1,t3
    800017ee:	b7f9                	j	800017bc <_ftoa+0x2a2>
    800017f0:	02000313          	li	t1,32
    800017f4:	b709                	j	800016f6 <_ftoa+0x1dc>

Disassembly of section .text._out_char:

00000000800017f6 <_out_char>:
    800017f6:	e111                	bnez	a0,800017fa <_out_char+0x4>
    800017f8:	8082                	ret
    800017fa:	dd8ff06f          	j	80000dd2 <_putc>

Disassembly of section .text._vsnprintf:

00000000800017fe <_vsnprintf>:
    800017fe:	7171                	addi	sp,sp,-176
    80001800:	ed26                	sd	s1,152(sp)
    80001802:	e54e                	sd	s3,136(sp)
    80001804:	e152                	sd	s4,128(sp)
    80001806:	fcd6                	sd	s5,120(sp)
    80001808:	e4ee                	sd	s11,72(sp)
    8000180a:	f506                	sd	ra,168(sp)
    8000180c:	f122                	sd	s0,160(sp)
    8000180e:	e94a                	sd	s2,144(sp)
    80001810:	f8da                	sd	s6,112(sp)
    80001812:	f4de                	sd	s7,104(sp)
    80001814:	f0e2                	sd	s8,96(sp)
    80001816:	ece6                	sd	s9,88(sp)
    80001818:	e8ea                	sd	s10,80(sp)
    8000181a:	89ae                	mv	s3,a1
    8000181c:	84b2                	mv	s1,a2
    8000181e:	8db6                	mv	s11,a3
    80001820:	8aba                	mv	s5,a4
    80001822:	fffffa17          	auipc	s4,0xfffff
    80001826:	69ca0a13          	addi	s4,s4,1692 # 80000ebe <_out_null>
    8000182a:	c191                	beqz	a1,8000182e <_vsnprintf+0x30>
    8000182c:	8a2a                	mv	s4,a0
    8000182e:	000dc503          	lbu	a0,0(s11)
    80001832:	4401                	li	s0,0
    80001834:	48050a63          	beqz	a0,80001cc8 <_vsnprintf+0x4ca>
    80001838:	6d05                	lui	s10,0x1
    8000183a:	800d0793          	addi	a5,s10,-2048 # 800 <_start-0x7ffff800>
    8000183e:	f03e                	sd	a5,32(sp)
    80001840:	67c1                	lui	a5,0x10
    80001842:	17fd                	addi	a5,a5,-1
    80001844:	00001917          	auipc	s2,0x1
    80001848:	eec90913          	addi	s2,s2,-276 # 80002730 <__am_mainargs+0x23>
    8000184c:	f43e                	sd	a5,40(sp)
    8000184e:	a809                	j	80001860 <_vsnprintf+0x62>
    80001850:	8622                	mv	a2,s0
    80001852:	86a6                	mv	a3,s1
    80001854:	85ce                	mv	a1,s3
    80001856:	0405                	addi	s0,s0,1
    80001858:	9a02                	jalr	s4
    8000185a:	000dc503          	lbu	a0,0(s11)
    8000185e:	c979                	beqz	a0,80001934 <_vsnprintf+0x136>
    80001860:	02500793          	li	a5,37
    80001864:	0d85                	addi	s11,s11,1
    80001866:	fef515e3          	bne	a0,a5,80001850 <_vsnprintf+0x52>
    8000186a:	4881                	li	a7,0
    8000186c:	4641                	li	a2,16
    8000186e:	000dc503          	lbu	a0,0(s11)
    80001872:	001d8713          	addi	a4,s11,1
    80001876:	86ba                	mv	a3,a4
    80001878:	fe05079b          	addiw	a5,a0,-32
    8000187c:	0ff7f793          	zext.b	a5,a5
    80001880:	00f66763          	bltu	a2,a5,8000188e <_vsnprintf+0x90>
    80001884:	2127c7b3          	sh2add	a5,a5,s2
    80001888:	439c                	lw	a5,0(a5)
    8000188a:	97ca                	add	a5,a5,s2
    8000188c:	8782                	jr	a5
    8000188e:	fd05079b          	addiw	a5,a0,-48
    80001892:	0ff7f793          	zext.b	a5,a5
    80001896:	4625                	li	a2,9
    80001898:	0ef67c63          	bgeu	a2,a5,80001990 <_vsnprintf+0x192>
    8000189c:	02a00793          	li	a5,42
    800018a0:	12f50463          	beq	a0,a5,800019c8 <_vsnprintf+0x1ca>
    800018a4:	86ee                	mv	a3,s11
    800018a6:	4c81                	li	s9,0
    800018a8:	8dba                	mv	s11,a4
    800018aa:	02e00713          	li	a4,46
    800018ae:	4d01                	li	s10,0
    800018b0:	0ae50d63          	beq	a0,a4,8000196a <_vsnprintf+0x16c>
    800018b4:	f985071b          	addiw	a4,a0,-104
    800018b8:	0ff77713          	zext.b	a4,a4
    800018bc:	4649                	li	a2,18
    800018be:	02e66163          	bltu	a2,a4,800018e0 <_vsnprintf+0xe2>
    800018c2:	00001797          	auipc	a5,0x1
    800018c6:	eb278793          	addi	a5,a5,-334 # 80002774 <__am_mainargs+0x67>
    800018ca:	20f74733          	sh2add	a4,a4,a5
    800018ce:	4318                	lw	a4,0(a4)
    800018d0:	973e                	add	a4,a4,a5
    800018d2:	8702                	jr	a4
    800018d4:	0016c503          	lbu	a0,1(a3)
    800018d8:	1008e893          	ori	a7,a7,256
    800018dc:	2881                	sext.w	a7,a7
    800018de:	0d85                	addi	s11,s11,1
    800018e0:	fdb5071b          	addiw	a4,a0,-37
    800018e4:	0ff77713          	zext.b	a4,a4
    800018e8:	05300693          	li	a3,83
    800018ec:	f6e6e2e3          	bltu	a3,a4,80001850 <_vsnprintf+0x52>
    800018f0:	00001797          	auipc	a5,0x1
    800018f4:	ed078793          	addi	a5,a5,-304 # 800027c0 <__am_mainargs+0xb3>
    800018f8:	20f74733          	sh2add	a4,a4,a5
    800018fc:	4318                	lw	a4,0(a4)
    800018fe:	973e                	add	a4,a4,a5
    80001900:	8702                	jr	a4
    80001902:	0018e893          	ori	a7,a7,1
    80001906:	2881                	sext.w	a7,a7
    80001908:	8dba                	mv	s11,a4
    8000190a:	b795                	j	8000186e <_vsnprintf+0x70>
    8000190c:	0028e893          	ori	a7,a7,2
    80001910:	2881                	sext.w	a7,a7
    80001912:	8dba                	mv	s11,a4
    80001914:	bfa9                	j	8000186e <_vsnprintf+0x70>
    80001916:	0048e893          	ori	a7,a7,4
    8000191a:	2881                	sext.w	a7,a7
    8000191c:	8dba                	mv	s11,a4
    8000191e:	bf81                	j	8000186e <_vsnprintf+0x70>
    80001920:	0108e893          	ori	a7,a7,16
    80001924:	2881                	sext.w	a7,a7
    80001926:	8dba                	mv	s11,a4
    80001928:	b799                	j	8000186e <_vsnprintf+0x70>
    8000192a:	0088e893          	ori	a7,a7,8
    8000192e:	2881                	sext.w	a7,a7
    80001930:	8dba                	mv	s11,a4
    80001932:	bf35                	j	8000186e <_vsnprintf+0x70>
    80001934:	0004091b          	sext.w	s2,s0
    80001938:	00946463          	bltu	s0,s1,80001940 <_vsnprintf+0x142>
    8000193c:	fff48413          	addi	s0,s1,-1
    80001940:	86a6                	mv	a3,s1
    80001942:	8622                	mv	a2,s0
    80001944:	85ce                	mv	a1,s3
    80001946:	4501                	li	a0,0
    80001948:	9a02                	jalr	s4
    8000194a:	70aa                	ld	ra,168(sp)
    8000194c:	740a                	ld	s0,160(sp)
    8000194e:	64ea                	ld	s1,152(sp)
    80001950:	69aa                	ld	s3,136(sp)
    80001952:	6a0a                	ld	s4,128(sp)
    80001954:	7ae6                	ld	s5,120(sp)
    80001956:	7b46                	ld	s6,112(sp)
    80001958:	7ba6                	ld	s7,104(sp)
    8000195a:	7c06                	ld	s8,96(sp)
    8000195c:	6ce6                	ld	s9,88(sp)
    8000195e:	6d46                	ld	s10,80(sp)
    80001960:	6da6                	ld	s11,72(sp)
    80001962:	854a                	mv	a0,s2
    80001964:	694a                	ld	s2,144(sp)
    80001966:	614d                	addi	sp,sp,176
    80001968:	8082                	ret
    8000196a:	0016c503          	lbu	a0,1(a3)
    8000196e:	4008e893          	ori	a7,a7,1024
    80001972:	4625                	li	a2,9
    80001974:	fd05071b          	addiw	a4,a0,-48
    80001978:	0ff77713          	zext.b	a4,a4
    8000197c:	2881                	sext.w	a7,a7
    8000197e:	24e67b63          	bgeu	a2,a4,80001bd4 <_vsnprintf+0x3d6>
    80001982:	02a00713          	li	a4,42
    80001986:	26e50f63          	beq	a0,a4,80001c04 <_vsnprintf+0x406>
    8000198a:	86ee                	mv	a3,s11
    8000198c:	0d85                	addi	s11,s11,1
    8000198e:	b71d                	j	800018b4 <_vsnprintf+0xb6>
    80001990:	4c81                	li	s9,0
    80001992:	46a5                	li	a3,9
    80001994:	a011                	j	80001998 <_vsnprintf+0x19a>
    80001996:	0705                	addi	a4,a4,1
    80001998:	002c979b          	slliw	a5,s9,0x2
    8000199c:	0197883b          	addw	a6,a5,s9
    800019a0:	0018181b          	slliw	a6,a6,0x1
    800019a4:	00a8083b          	addw	a6,a6,a0
    800019a8:	00074503          	lbu	a0,0(a4)
    800019ac:	866e                	mv	a2,s11
    800019ae:	fd080c9b          	addiw	s9,a6,-48
    800019b2:	fd05079b          	addiw	a5,a0,-48
    800019b6:	0ff7f793          	zext.b	a5,a5
    800019ba:	8dba                	mv	s11,a4
    800019bc:	fcf6fde3          	bgeu	a3,a5,80001996 <_vsnprintf+0x198>
    800019c0:	86ba                	mv	a3,a4
    800019c2:	00260d93          	addi	s11,a2,2
    800019c6:	b5d5                	j	800018aa <_vsnprintf+0xac>
    800019c8:	000aa783          	lw	a5,0(s5)
    800019cc:	0aa1                	addi	s5,s5,8
    800019ce:	00078c9b          	sext.w	s9,a5
    800019d2:	0007c663          	bltz	a5,800019de <_vsnprintf+0x1e0>
    800019d6:	001dc503          	lbu	a0,1(s11)
    800019da:	0d89                	addi	s11,s11,2
    800019dc:	b5f9                	j	800018aa <_vsnprintf+0xac>
    800019de:	0028e893          	ori	a7,a7,2
    800019e2:	001dc503          	lbu	a0,1(s11)
    800019e6:	2881                	sext.w	a7,a7
    800019e8:	40f00cbb          	negw	s9,a5
    800019ec:	0d89                	addi	s11,s11,2
    800019ee:	bd75                	j	800018aa <_vsnprintf+0xac>
    800019f0:	07800713          	li	a4,120
    800019f4:	008a8b13          	addi	s6,s5,8
    800019f8:	3ee50863          	beq	a0,a4,80001de8 <_vsnprintf+0x5ea>
    800019fc:	05800713          	li	a4,88
    80001a00:	2ce50863          	beq	a0,a4,80001cd0 <_vsnprintf+0x4d2>
    80001a04:	06f00713          	li	a4,111
    80001a08:	40e50863          	beq	a0,a4,80001e18 <_vsnprintf+0x61a>
    80001a0c:	06200713          	li	a4,98
    80001a10:	46e50763          	beq	a0,a4,80001e7e <_vsnprintf+0x680>
    80001a14:	fef8f693          	andi	a3,a7,-17
    80001a18:	06900613          	li	a2,105
    80001a1c:	8746                	mv	a4,a7
    80001a1e:	2681                	sext.w	a3,a3
    80001a20:	4008f893          	andi	a7,a7,1024
    80001a24:	48c51963          	bne	a0,a2,80001eb6 <_vsnprintf+0x6b8>
    80001a28:	3c089963          	bnez	a7,80001dfa <_vsnprintf+0x5fc>
    80001a2c:	20077893          	andi	a7,a4,512
    80001a30:	45a9                	li	a1,10
    80001a32:	38089663          	bnez	a7,80001dbe <_vsnprintf+0x5c0>
    80001a36:	1006f713          	andi	a4,a3,256
    80001a3a:	8636                	mv	a2,a3
    80001a3c:	40071c63          	bnez	a4,80001e54 <_vsnprintf+0x656>
    80001a40:	0406f713          	andi	a4,a3,64
    80001a44:	000aa503          	lw	a0,0(s5)
    80001a48:	3a071e63          	bnez	a4,80001e04 <_vsnprintf+0x606>
    80001a4c:	08067613          	andi	a2,a2,128
    80001a50:	44060263          	beqz	a2,80001e94 <_vsnprintf+0x696>
    80001a54:	60551513          	sext.h	a0,a0
    80001a58:	40f5561b          	sraiw	a2,a0,0xf
    80001a5c:	00c54733          	xor	a4,a0,a2
    80001a60:	9f11                	subw	a4,a4,a2
    80001a62:	2501                	sext.w	a0,a0
    80001a64:	0807473b          	zext.h	a4,a4
    80001a68:	8622                	mv	a2,s0
    80001a6a:	e436                	sd	a3,8(sp)
    80001a6c:	e066                	sd	s9,0(sp)
    80001a6e:	88ea                	mv	a7,s10
    80001a70:	882e                	mv	a6,a1
    80001a72:	01f5579b          	srliw	a5,a0,0x1f
    80001a76:	86a6                	mv	a3,s1
    80001a78:	85ce                	mv	a1,s3
    80001a7a:	8552                	mv	a0,s4
    80001a7c:	d04ff0ef          	jal	ra,80000f80 <_ntoa_long>
    80001a80:	842a                	mv	s0,a0
    80001a82:	8ada                	mv	s5,s6
    80001a84:	bbd9                	j	8000185a <_vsnprintf+0x5c>
    80001a86:	0016c503          	lbu	a0,1(a3)
    80001a8a:	06c00713          	li	a4,108
    80001a8e:	e4e515e3          	bne	a0,a4,800018d8 <_vsnprintf+0xda>
    80001a92:	3008e893          	ori	a7,a7,768
    80001a96:	0026c503          	lbu	a0,2(a3)
    80001a9a:	2881                	sext.w	a7,a7
    80001a9c:	00368d93          	addi	s11,a3,3
    80001aa0:	b581                	j	800018e0 <_vsnprintf+0xe2>
    80001aa2:	0016c503          	lbu	a0,1(a3)
    80001aa6:	06800713          	li	a4,104
    80001aaa:	20e50763          	beq	a0,a4,80001cb8 <_vsnprintf+0x4ba>
    80001aae:	0808e893          	ori	a7,a7,128
    80001ab2:	2881                	sext.w	a7,a7
    80001ab4:	0d85                	addi	s11,s11,1
    80001ab6:	b52d                	j	800018e0 <_vsnprintf+0xe2>
    80001ab8:	04600713          	li	a4,70
    80001abc:	18e50e63          	beq	a0,a4,80001c58 <_vsnprintf+0x45a>
    80001ac0:	000ab703          	ld	a4,0(s5)
    80001ac4:	8622                	mv	a2,s0
    80001ac6:	8866                	mv	a6,s9
    80001ac8:	87ea                	mv	a5,s10
    80001aca:	86a6                	mv	a3,s1
    80001acc:	85ce                	mv	a1,s3
    80001ace:	8552                	mv	a0,s4
    80001ad0:	a4bff0ef          	jal	ra,8000151a <_ftoa>
    80001ad4:	0aa1                	addi	s5,s5,8
    80001ad6:	842a                	mv	s0,a0
    80001ad8:	b349                	j	8000185a <_vsnprintf+0x5c>
    80001ada:	8622                	mv	a2,s0
    80001adc:	86a6                	mv	a3,s1
    80001ade:	85ce                	mv	a1,s3
    80001ae0:	02500513          	li	a0,37
    80001ae4:	0405                	addi	s0,s0,1
    80001ae6:	9a02                	jalr	s4
    80001ae8:	bb8d                	j	8000185a <_vsnprintf+0x5c>
    80001aea:	00140713          	addi	a4,s0,1
    80001aee:	0028f893          	andi	a7,a7,2
    80001af2:	8bba                	mv	s7,a4
    80001af4:	008a8b13          	addi	s6,s5,8
    80001af8:	28088563          	beqz	a7,80001d82 <_vsnprintf+0x584>
    80001afc:	000ac503          	lbu	a0,0(s5)
    80001b00:	86a6                	mv	a3,s1
    80001b02:	8622                	mv	a2,s0
    80001b04:	85ce                	mv	a1,s3
    80001b06:	9a02                	jalr	s4
    80001b08:	4785                	li	a5,1
    80001b0a:	3197f463          	bgeu	a5,s9,80001e12 <_vsnprintf+0x614>
    80001b0e:	00240513          	addi	a0,s0,2
    80001b12:	ffec881b          	addiw	a6,s9,-2
    80001b16:	08a8043b          	add.uw	s0,a6,a0
    80001b1a:	865e                	mv	a2,s7
    80001b1c:	86a6                	mv	a3,s1
    80001b1e:	0b85                	addi	s7,s7,1
    80001b20:	85ce                	mv	a1,s3
    80001b22:	02000513          	li	a0,32
    80001b26:	9a02                	jalr	s4
    80001b28:	ff7419e3          	bne	s0,s7,80001b1a <_vsnprintf+0x31c>
    80001b2c:	8ada                	mv	s5,s6
    80001b2e:	b335                	j	8000185a <_vsnprintf+0x5c>
    80001b30:	000abb03          	ld	s6,0(s5)
    80001b34:	008a8793          	addi	a5,s5,8
    80001b38:	f83e                	sd	a5,48(sp)
    80001b3a:	000b4503          	lbu	a0,0(s6)
    80001b3e:	0e0d1063          	bnez	s10,80001c1e <_vsnprintf+0x420>
    80001b42:	56f9                	li	a3,-2
    80001b44:	34050e63          	beqz	a0,80001ea0 <_vsnprintf+0x6a2>
    80001b48:	0685                	addi	a3,a3,1
    80001b4a:	96da                	add	a3,a3,s6
    80001b4c:	8ada                	mv	s5,s6
    80001b4e:	a019                	j	80001b54 <_vsnprintf+0x356>
    80001b50:	00da8663          	beq	s5,a3,80001b5c <_vsnprintf+0x35e>
    80001b54:	001ac703          	lbu	a4,1(s5)
    80001b58:	0a85                	addi	s5,s5,1
    80001b5a:	fb7d                	bnez	a4,80001b50 <_vsnprintf+0x352>
    80001b5c:	416a8abb          	subw	s5,s5,s6
    80001b60:	4008fb93          	andi	s7,a7,1024
    80001b64:	000b8963          	beqz	s7,80001b76 <_vsnprintf+0x378>
    80001b68:	080a873b          	zext.w	a4,s5
    80001b6c:	080d0abb          	zext.w	s5,s10
    80001b70:	0aeadab3          	minu	s5,s5,a4
    80001b74:	2a81                	sext.w	s5,s5
    80001b76:	0028f793          	andi	a5,a7,2
    80001b7a:	fc3e                	sd	a5,56(sp)
    80001b7c:	1c078263          	beqz	a5,80001d40 <_vsnprintf+0x542>
    80001b80:	c565                	beqz	a0,80001c68 <_vsnprintf+0x46a>
    80001b82:	8622                	mv	a2,s0
    80001b84:	000b8763          	beqz	s7,80001b92 <_vsnprintf+0x394>
    80001b88:	fffd071b          	addiw	a4,s10,-1
    80001b8c:	0c0d0a63          	beqz	s10,80001c60 <_vsnprintf+0x462>
    80001b90:	8d3a                	mv	s10,a4
    80001b92:	86a6                	mv	a3,s1
    80001b94:	85ce                	mv	a1,s3
    80001b96:	00160c13          	addi	s8,a2,1
    80001b9a:	9a02                	jalr	s4
    80001b9c:	408c0733          	sub	a4,s8,s0
    80001ba0:	975a                	add	a4,a4,s6
    80001ba2:	00074503          	lbu	a0,0(a4)
    80001ba6:	cd55                	beqz	a0,80001c62 <_vsnprintf+0x464>
    80001ba8:	8662                	mv	a2,s8
    80001baa:	bfe9                	j	80001b84 <_vsnprintf+0x386>
    80001bac:	000ab703          	ld	a4,0(s5)
    80001bb0:	0218e893          	ori	a7,a7,33
    80001bb4:	2881                	sext.w	a7,a7
    80001bb6:	46c1                	li	a3,16
    80001bb8:	8622                	mv	a2,s0
    80001bba:	e446                	sd	a7,8(sp)
    80001bbc:	e036                	sd	a3,0(sp)
    80001bbe:	88ea                	mv	a7,s10
    80001bc0:	4841                	li	a6,16
    80001bc2:	4781                	li	a5,0
    80001bc4:	86a6                	mv	a3,s1
    80001bc6:	85ce                	mv	a1,s3
    80001bc8:	8552                	mv	a0,s4
    80001bca:	bb6ff0ef          	jal	ra,80000f80 <_ntoa_long>
    80001bce:	0aa1                	addi	s5,s5,8
    80001bd0:	842a                	mv	s0,a0
    80001bd2:	b161                	j	8000185a <_vsnprintf+0x5c>
    80001bd4:	46a5                	li	a3,9
    80001bd6:	002d171b          	slliw	a4,s10,0x2
    80001bda:	01a707bb          	addw	a5,a4,s10
    80001bde:	866e                	mv	a2,s11
    80001be0:	0017979b          	slliw	a5,a5,0x1
    80001be4:	0d85                	addi	s11,s11,1
    80001be6:	9fa9                	addw	a5,a5,a0
    80001be8:	000dc503          	lbu	a0,0(s11)
    80001bec:	fd078d1b          	addiw	s10,a5,-48
    80001bf0:	fd05071b          	addiw	a4,a0,-48
    80001bf4:	0ff77713          	zext.b	a4,a4
    80001bf8:	fce6ffe3          	bgeu	a3,a4,80001bd6 <_vsnprintf+0x3d8>
    80001bfc:	86ee                	mv	a3,s11
    80001bfe:	00260d93          	addi	s11,a2,2
    80001c02:	b94d                	j	800018b4 <_vsnprintf+0xb6>
    80001c04:	000aa703          	lw	a4,0(s5)
    80001c08:	0026c503          	lbu	a0,2(a3)
    80001c0c:	00368d93          	addi	s11,a3,3
    80001c10:	0ba767b3          	max	a5,a4,s10
    80001c14:	0aa1                	addi	s5,s5,8
    80001c16:	00078d1b          	sext.w	s10,a5
    80001c1a:	0689                	addi	a3,a3,2
    80001c1c:	b961                	j	800018b4 <_vsnprintf+0xb6>
    80001c1e:	080d06bb          	zext.w	a3,s10
    80001c22:	26050f63          	beqz	a0,80001ea0 <_vsnprintf+0x6a2>
    80001c26:	16fd                	addi	a3,a3,-1
    80001c28:	b705                	j	80001b48 <_vsnprintf+0x34a>
    80001c2a:	0df57713          	andi	a4,a0,223
    80001c2e:	04700693          	li	a3,71
    80001c32:	06d70563          	beq	a4,a3,80001c9c <_vsnprintf+0x49e>
    80001c36:	04500713          	li	a4,69
    80001c3a:	06e50b63          	beq	a0,a4,80001cb0 <_vsnprintf+0x4b2>
    80001c3e:	000ab703          	ld	a4,0(s5)
    80001c42:	8622                	mv	a2,s0
    80001c44:	8866                	mv	a6,s9
    80001c46:	87ea                	mv	a5,s10
    80001c48:	86a6                	mv	a3,s1
    80001c4a:	85ce                	mv	a1,s3
    80001c4c:	8552                	mv	a0,s4
    80001c4e:	de6ff0ef          	jal	ra,80001234 <_etoa>
    80001c52:	0aa1                	addi	s5,s5,8
    80001c54:	842a                	mv	s0,a0
    80001c56:	b111                	j	8000185a <_vsnprintf+0x5c>
    80001c58:	0208e893          	ori	a7,a7,32
    80001c5c:	2881                	sext.w	a7,a7
    80001c5e:	b58d                	j	80001ac0 <_vsnprintf+0x2c2>
    80001c60:	8c32                	mv	s8,a2
    80001c62:	77e2                	ld	a5,56(sp)
    80001c64:	cb8d                	beqz	a5,80001c96 <_vsnprintf+0x498>
    80001c66:	8462                	mv	s0,s8
    80001c68:	119afb63          	bgeu	s5,s9,80001d7e <_vsnprintf+0x580>
    80001c6c:	fffc881b          	addiw	a6,s9,-1
    80001c70:	415808bb          	subw	a7,a6,s5
    80001c74:	00140713          	addi	a4,s0,1
    80001c78:	08e88c3b          	add.uw	s8,a7,a4
    80001c7c:	a011                	j	80001c80 <_vsnprintf+0x482>
    80001c7e:	0705                	addi	a4,a4,1
    80001c80:	8622                	mv	a2,s0
    80001c82:	ec3a                	sd	a4,24(sp)
    80001c84:	86a6                	mv	a3,s1
    80001c86:	85ce                	mv	a1,s3
    80001c88:	02000513          	li	a0,32
    80001c8c:	843a                	mv	s0,a4
    80001c8e:	9a02                	jalr	s4
    80001c90:	6762                	ld	a4,24(sp)
    80001c92:	feec16e3          	bne	s8,a4,80001c7e <_vsnprintf+0x480>
    80001c96:	7ac2                	ld	s5,48(sp)
    80001c98:	8462                	mv	s0,s8
    80001c9a:	b6c1                	j	8000185a <_vsnprintf+0x5c>
    80001c9c:	7782                	ld	a5,32(sp)
    80001c9e:	0fd57513          	andi	a0,a0,253
    80001ca2:	04500713          	li	a4,69
    80001ca6:	00f8e8b3          	or	a7,a7,a5
    80001caa:	2881                	sext.w	a7,a7
    80001cac:	f8e519e3          	bne	a0,a4,80001c3e <_vsnprintf+0x440>
    80001cb0:	0208e893          	ori	a7,a7,32
    80001cb4:	2881                	sext.w	a7,a7
    80001cb6:	b761                	j	80001c3e <_vsnprintf+0x440>
    80001cb8:	0c08e893          	ori	a7,a7,192
    80001cbc:	0026c503          	lbu	a0,2(a3)
    80001cc0:	2881                	sext.w	a7,a7
    80001cc2:	00368d93          	addi	s11,a3,3
    80001cc6:	b929                	j	800018e0 <_vsnprintf+0xe2>
    80001cc8:	4901                	li	s2,0
    80001cca:	c6946be3          	bltu	s0,s1,80001940 <_vsnprintf+0x142>
    80001cce:	b1bd                	j	8000193c <_vsnprintf+0x13e>
    80001cd0:	ff38f693          	andi	a3,a7,-13
    80001cd4:	2681                	sext.w	a3,a3
    80001cd6:	4008f713          	andi	a4,a7,1024
    80001cda:	0206e693          	ori	a3,a3,32
    80001cde:	45c1                	li	a1,16
    80001ce0:	10070f63          	beqz	a4,80001dfe <_vsnprintf+0x600>
    80001ce4:	9af9                	andi	a3,a3,-2
    80001ce6:	2681                	sext.w	a3,a3
    80001ce8:	06900713          	li	a4,105
    80001cec:	2006f893          	andi	a7,a3,512
    80001cf0:	d4e501e3          	beq	a0,a4,80001a32 <_vsnprintf+0x234>
    80001cf4:	06400713          	li	a4,100
    80001cf8:	d2e50de3          	beq	a0,a4,80001a32 <_vsnprintf+0x234>
    80001cfc:	12089c63          	bnez	a7,80001e34 <_vsnprintf+0x636>
    80001d00:	1006f713          	andi	a4,a3,256
    80001d04:	8636                	mv	a2,a3
    80001d06:	16071e63          	bnez	a4,80001e82 <_vsnprintf+0x684>
    80001d0a:	0406f713          	andi	a4,a3,64
    80001d0e:	0e071f63          	bnez	a4,80001e0c <_vsnprintf+0x60e>
    80001d12:	08067613          	andi	a2,a2,128
    80001d16:	000aa703          	lw	a4,0(s5)
    80001d1a:	c219                	beqz	a2,80001d20 <_vsnprintf+0x522>
    80001d1c:	77a2                	ld	a5,40(sp)
    80001d1e:	8f7d                	and	a4,a4,a5
    80001d20:	8622                	mv	a2,s0
    80001d22:	e436                	sd	a3,8(sp)
    80001d24:	882e                	mv	a6,a1
    80001d26:	e066                	sd	s9,0(sp)
    80001d28:	88ea                	mv	a7,s10
    80001d2a:	4781                	li	a5,0
    80001d2c:	86a6                	mv	a3,s1
    80001d2e:	85ce                	mv	a1,s3
    80001d30:	8552                	mv	a0,s4
    80001d32:	0807073b          	zext.w	a4,a4
    80001d36:	a4aff0ef          	jal	ra,80000f80 <_ntoa_long>
    80001d3a:	842a                	mv	s0,a0
    80001d3c:	8ada                	mv	s5,s6
    80001d3e:	be31                	j	8000185a <_vsnprintf+0x5c>
    80001d40:	001a871b          	addiw	a4,s5,1
    80001d44:	179af363          	bgeu	s5,s9,80001eaa <_vsnprintf+0x6ac>
    80001d48:	fffc871b          	addiw	a4,s9,-1
    80001d4c:	41570abb          	subw	s5,a4,s5
    80001d50:	00140713          	addi	a4,s0,1
    80001d54:	08ea8abb          	add.uw	s5,s5,a4
    80001d58:	a019                	j	80001d5e <_vsnprintf+0x560>
    80001d5a:	6762                	ld	a4,24(sp)
    80001d5c:	0705                	addi	a4,a4,1
    80001d5e:	8622                	mv	a2,s0
    80001d60:	86a6                	mv	a3,s1
    80001d62:	843a                	mv	s0,a4
    80001d64:	ec3a                	sd	a4,24(sp)
    80001d66:	85ce                	mv	a1,s3
    80001d68:	02000513          	li	a0,32
    80001d6c:	9a02                	jalr	s4
    80001d6e:	fe8a96e3          	bne	s5,s0,80001d5a <_vsnprintf+0x55c>
    80001d72:	000b4503          	lbu	a0,0(s6)
    80001d76:	001c8a9b          	addiw	s5,s9,1
    80001d7a:	e00514e3          	bnez	a0,80001b82 <_vsnprintf+0x384>
    80001d7e:	8c22                	mv	s8,s0
    80001d80:	bf19                	j	80001c96 <_vsnprintf+0x498>
    80001d82:	4785                	li	a5,1
    80001d84:	1397f063          	bgeu	a5,s9,80001ea4 <_vsnprintf+0x6a6>
    80001d88:	ffec881b          	addiw	a6,s9,-2
    80001d8c:	08e80c3b          	add.uw	s8,a6,a4
    80001d90:	a019                	j	80001d96 <_vsnprintf+0x598>
    80001d92:	6762                	ld	a4,24(sp)
    80001d94:	0705                	addi	a4,a4,1
    80001d96:	8622                	mv	a2,s0
    80001d98:	86a6                	mv	a3,s1
    80001d9a:	843a                	mv	s0,a4
    80001d9c:	ec3a                	sd	a4,24(sp)
    80001d9e:	85ce                	mv	a1,s3
    80001da0:	02000513          	li	a0,32
    80001da4:	9a02                	jalr	s4
    80001da6:	fe8c16e3          	bne	s8,s0,80001d92 <_vsnprintf+0x594>
    80001daa:	001c0413          	addi	s0,s8,1
    80001dae:	000ac503          	lbu	a0,0(s5)
    80001db2:	86a6                	mv	a3,s1
    80001db4:	8662                	mv	a2,s8
    80001db6:	85ce                	mv	a1,s3
    80001db8:	9a02                	jalr	s4
    80001dba:	8ada                	mv	s5,s6
    80001dbc:	bc79                	j	8000185a <_vsnprintf+0x5c>
    80001dbe:	000ab703          	ld	a4,0(s5)
    80001dc2:	8622                	mv	a2,s0
    80001dc4:	e436                	sd	a3,8(sp)
    80001dc6:	40e00e33          	neg	t3,a4
    80001dca:	882e                	mv	a6,a1
    80001dcc:	03f75793          	srli	a5,a4,0x3f
    80001dd0:	e066                	sd	s9,0(sp)
    80001dd2:	88ea                	mv	a7,s10
    80001dd4:	86a6                	mv	a3,s1
    80001dd6:	85ce                	mv	a1,s3
    80001dd8:	8552                	mv	a0,s4
    80001dda:	0bc76733          	max	a4,a4,t3
    80001dde:	9a2ff0ef          	jal	ra,80000f80 <_ntoa_long>
    80001de2:	842a                	mv	s0,a0
    80001de4:	8ada                	mv	s5,s6
    80001de6:	bc95                	j	8000185a <_vsnprintf+0x5c>
    80001de8:	4008f713          	andi	a4,a7,1024
    80001dec:	45c1                	li	a1,16
    80001dee:	ff38f693          	andi	a3,a7,-13
    80001df2:	2681                	sext.w	a3,a3
    80001df4:	ee070ae3          	beqz	a4,80001ce8 <_vsnprintf+0x4ea>
    80001df8:	b5f5                	j	80001ce4 <_vsnprintf+0x4e6>
    80001dfa:	45a9                	li	a1,10
    80001dfc:	b5e5                	j	80001ce4 <_vsnprintf+0x4e6>
    80001dfe:	2008f893          	andi	a7,a7,512
    80001e02:	bded                	j	80001cfc <_vsnprintf+0x4fe>
    80001e04:	0ff57513          	zext.b	a0,a0
    80001e08:	872a                	mv	a4,a0
    80001e0a:	b9b9                	j	80001a68 <_vsnprintf+0x26a>
    80001e0c:	000ac703          	lbu	a4,0(s5)
    80001e10:	bf01                	j	80001d20 <_vsnprintf+0x522>
    80001e12:	845e                	mv	s0,s7
    80001e14:	8ada                	mv	s5,s6
    80001e16:	b491                	j	8000185a <_vsnprintf+0x5c>
    80001e18:	45a1                	li	a1,8
    80001e1a:	86c6                	mv	a3,a7
    80001e1c:	06400613          	li	a2,100
    80001e20:	88b6                	mv	a7,a3
    80001e22:	4006f713          	andi	a4,a3,1024
    80001e26:	08c51663          	bne	a0,a2,80001eb2 <_vsnprintf+0x6b4>
    80001e2a:	2008f893          	andi	a7,a7,512
    80001e2e:	c00702e3          	beqz	a4,80001a32 <_vsnprintf+0x234>
    80001e32:	bd4d                	j	80001ce4 <_vsnprintf+0x4e6>
    80001e34:	000ab703          	ld	a4,0(s5)
    80001e38:	8622                	mv	a2,s0
    80001e3a:	e436                	sd	a3,8(sp)
    80001e3c:	882e                	mv	a6,a1
    80001e3e:	e066                	sd	s9,0(sp)
    80001e40:	88ea                	mv	a7,s10
    80001e42:	4781                	li	a5,0
    80001e44:	86a6                	mv	a3,s1
    80001e46:	85ce                	mv	a1,s3
    80001e48:	8552                	mv	a0,s4
    80001e4a:	936ff0ef          	jal	ra,80000f80 <_ntoa_long>
    80001e4e:	842a                	mv	s0,a0
    80001e50:	8ada                	mv	s5,s6
    80001e52:	b421                	j	8000185a <_vsnprintf+0x5c>
    80001e54:	000ab703          	ld	a4,0(s5)
    80001e58:	8622                	mv	a2,s0
    80001e5a:	e436                	sd	a3,8(sp)
    80001e5c:	40e00e33          	neg	t3,a4
    80001e60:	882e                	mv	a6,a1
    80001e62:	03f75793          	srli	a5,a4,0x3f
    80001e66:	e066                	sd	s9,0(sp)
    80001e68:	88ea                	mv	a7,s10
    80001e6a:	86a6                	mv	a3,s1
    80001e6c:	85ce                	mv	a1,s3
    80001e6e:	8552                	mv	a0,s4
    80001e70:	0bc76733          	max	a4,a4,t3
    80001e74:	90cff0ef          	jal	ra,80000f80 <_ntoa_long>
    80001e78:	842a                	mv	s0,a0
    80001e7a:	8ada                	mv	s5,s6
    80001e7c:	baf9                	j	8000185a <_vsnprintf+0x5c>
    80001e7e:	4589                	li	a1,2
    80001e80:	bf69                	j	80001e1a <_vsnprintf+0x61c>
    80001e82:	000ab703          	ld	a4,0(s5)
    80001e86:	8622                	mv	a2,s0
    80001e88:	e436                	sd	a3,8(sp)
    80001e8a:	e066                	sd	s9,0(sp)
    80001e8c:	88ea                	mv	a7,s10
    80001e8e:	882e                	mv	a6,a1
    80001e90:	4781                	li	a5,0
    80001e92:	b6d5                	j	80001a76 <_vsnprintf+0x278>
    80001e94:	41f5561b          	sraiw	a2,a0,0x1f
    80001e98:	00c54733          	xor	a4,a0,a2
    80001e9c:	9f11                	subw	a4,a4,a2
    80001e9e:	b6e9                	j	80001a68 <_vsnprintf+0x26a>
    80001ea0:	4a81                	li	s5,0
    80001ea2:	b97d                	j	80001b60 <_vsnprintf+0x362>
    80001ea4:	8c22                	mv	s8,s0
    80001ea6:	843a                	mv	s0,a4
    80001ea8:	b719                	j	80001dae <_vsnprintf+0x5b0>
    80001eaa:	8aba                	mv	s5,a4
    80001eac:	cc051be3          	bnez	a0,80001b82 <_vsnprintf+0x384>
    80001eb0:	b5f9                	j	80001d7e <_vsnprintf+0x580>
    80001eb2:	88b6                	mv	a7,a3
    80001eb4:	bf2d                	j	80001dee <_vsnprintf+0x5f0>
    80001eb6:	45a9                	li	a1,10
    80001eb8:	b795                	j	80001e1c <_vsnprintf+0x61e>

Disassembly of section .text.printf_:

0000000080001eba <printf_>:
    80001eba:	711d                	addi	sp,sp,-96
    80001ebc:	02810313          	addi	t1,sp,40
    80001ec0:	f42e                	sd	a1,40(sp)
    80001ec2:	f832                	sd	a2,48(sp)
    80001ec4:	fc36                	sd	a3,56(sp)
    80001ec6:	e0ba                	sd	a4,64(sp)
    80001ec8:	86aa                	mv	a3,a0
    80001eca:	858a                	mv	a1,sp
    80001ecc:	871a                	mv	a4,t1
    80001ece:	567d                	li	a2,-1
    80001ed0:	00000517          	auipc	a0,0x0
    80001ed4:	92650513          	addi	a0,a0,-1754 # 800017f6 <_out_char>
    80001ed8:	ec06                	sd	ra,24(sp)
    80001eda:	e4be                	sd	a5,72(sp)
    80001edc:	e8c2                	sd	a6,80(sp)
    80001ede:	ecc6                	sd	a7,88(sp)
    80001ee0:	e41a                	sd	t1,8(sp)
    80001ee2:	91dff0ef          	jal	ra,800017fe <_vsnprintf>
    80001ee6:	60e2                	ld	ra,24(sp)
    80001ee8:	6125                	addi	sp,sp,96
    80001eea:	8082                	ret

Disassembly of section .text.strcpy:

0000000080001eec <strcpy>:
    80001eec:	87aa                	mv	a5,a0
    80001eee:	0005c703          	lbu	a4,0(a1)
    80001ef2:	0785                	addi	a5,a5,1
    80001ef4:	0585                	addi	a1,a1,1
    80001ef6:	fee78fa3          	sb	a4,-1(a5)
    80001efa:	fb75                	bnez	a4,80001eee <strcpy+0x2>
    80001efc:	8082                	ret

Disassembly of section .text.strcmp:

0000000080001efe <strcmp>:
    80001efe:	00054783          	lbu	a5,0(a0)
    80001f02:	0005c703          	lbu	a4,0(a1)
    80001f06:	cb89                	beqz	a5,80001f18 <strcmp+0x1a>
    80001f08:	0505                	addi	a0,a0,1
    80001f0a:	0585                	addi	a1,a1,1
    80001f0c:	fee789e3          	beq	a5,a4,80001efe <strcmp>
    80001f10:	0007851b          	sext.w	a0,a5
    80001f14:	9d19                	subw	a0,a0,a4
    80001f16:	8082                	ret
    80001f18:	4501                	li	a0,0
    80001f1a:	bfed                	j	80001f14 <strcmp+0x16>
